
Step_dir.elf:     file format elf32-littlearm

Sections:
Idx Name          Size      VMA       LMA       File off  Algn
  0 .isr_vector   000000c0  08000000  08000000  00010000  2**0
                  CONTENTS, ALLOC, LOAD, READONLY, DATA
  1 .text         000037d8  080000c0  080000c0  000100c0  2**2
                  CONTENTS, ALLOC, LOAD, READONLY, CODE
  2 .rodata       000000f4  08003898  08003898  00013898  2**2
                  CONTENTS, ALLOC, LOAD, READONLY, DATA
  3 .ARM.extab    00000000  0800398c  0800398c  00020020  2**0
                  CONTENTS
  4 .ARM          00000000  0800398c  0800398c  00020020  2**0
                  CONTENTS
  5 .preinit_array 00000000  0800398c  0800398c  00020020  2**0
                  CONTENTS, ALLOC, LOAD, DATA
  6 .init_array   00000004  0800398c  0800398c  0001398c  2**2
                  CONTENTS, ALLOC, LOAD, DATA
  7 .fini_array   00000004  08003990  08003990  00013990  2**2
                  CONTENTS, ALLOC, LOAD, DATA
  8 .data         00000020  20000000  08003994  00020000  2**2
                  CONTENTS, ALLOC, LOAD, DATA
  9 .bss          000000cc  20000020  080039b4  00020020  2**2
                  ALLOC
 10 ._user_heap_stack 00000604  200000ec  080039b4  000200ec  2**0
                  ALLOC
 11 .ARM.attributes 00000028  00000000  00000000  00020020  2**0
                  CONTENTS, READONLY
 12 .debug_info   000030c8  00000000  00000000  00020048  2**0
                  CONTENTS, READONLY, DEBUGGING, OCTETS
 13 .debug_abbrev 00000c6e  00000000  00000000  00023110  2**0
                  CONTENTS, READONLY, DEBUGGING, OCTETS
 14 .debug_aranges 000002c8  00000000  00000000  00023d80  2**3
                  CONTENTS, READONLY, DEBUGGING, OCTETS
 15 .debug_ranges 00000250  00000000  00000000  00024048  2**3
                  CONTENTS, READONLY, DEBUGGING, OCTETS
 16 .debug_macro  00010bfc  00000000  00000000  00024298  2**0
                  CONTENTS, READONLY, DEBUGGING, OCTETS
 17 .debug_line   00002ff0  00000000  00000000  00034e94  2**0
                  CONTENTS, READONLY, DEBUGGING, OCTETS
 18 .debug_str    000563f0  00000000  00000000  00037e84  2**0
                  CONTENTS, READONLY, DEBUGGING, OCTETS
 19 .comment      00000050  00000000  00000000  0008e274  2**0
                  CONTENTS, READONLY
 20 .debug_frame  00000a60  00000000  00000000  0008e2c4  2**2
                  CONTENTS, READONLY, DEBUGGING, OCTETS

Disassembly of section .text:

080000c0 <__do_global_dtors_aux>:
 80000c0:	b510      	push	{r4, lr}
 80000c2:	4c06      	ldr	r4, [pc, #24]	; (80000dc <__do_global_dtors_aux+0x1c>)
 80000c4:	7823      	ldrb	r3, [r4, #0]
 80000c6:	2b00      	cmp	r3, #0
 80000c8:	d107      	bne.n	80000da <__do_global_dtors_aux+0x1a>
 80000ca:	4b05      	ldr	r3, [pc, #20]	; (80000e0 <__do_global_dtors_aux+0x20>)
 80000cc:	2b00      	cmp	r3, #0
 80000ce:	d002      	beq.n	80000d6 <__do_global_dtors_aux+0x16>
 80000d0:	4804      	ldr	r0, [pc, #16]	; (80000e4 <__do_global_dtors_aux+0x24>)
 80000d2:	e000      	b.n	80000d6 <__do_global_dtors_aux+0x16>
 80000d4:	bf00      	nop
 80000d6:	2301      	movs	r3, #1
 80000d8:	7023      	strb	r3, [r4, #0]
 80000da:	bd10      	pop	{r4, pc}
 80000dc:	20000020 	.word	0x20000020
 80000e0:	00000000 	.word	0x00000000
 80000e4:	08003880 	.word	0x08003880

080000e8 <frame_dummy>:
 80000e8:	4b04      	ldr	r3, [pc, #16]	; (80000fc <frame_dummy+0x14>)
 80000ea:	b510      	push	{r4, lr}
 80000ec:	2b00      	cmp	r3, #0
 80000ee:	d003      	beq.n	80000f8 <frame_dummy+0x10>
 80000f0:	4903      	ldr	r1, [pc, #12]	; (8000100 <frame_dummy+0x18>)
 80000f2:	4804      	ldr	r0, [pc, #16]	; (8000104 <frame_dummy+0x1c>)
 80000f4:	e000      	b.n	80000f8 <frame_dummy+0x10>
 80000f6:	bf00      	nop
 80000f8:	bd10      	pop	{r4, pc}
 80000fa:	46c0      	nop			; (mov r8, r8)
 80000fc:	00000000 	.word	0x00000000
 8000100:	20000024 	.word	0x20000024
 8000104:	08003880 	.word	0x08003880

08000108 <__udivsi3>:
 8000108:	2200      	movs	r2, #0
 800010a:	0843      	lsrs	r3, r0, #1
 800010c:	428b      	cmp	r3, r1
 800010e:	d374      	bcc.n	80001fa <__udivsi3+0xf2>
 8000110:	0903      	lsrs	r3, r0, #4
 8000112:	428b      	cmp	r3, r1
 8000114:	d35f      	bcc.n	80001d6 <__udivsi3+0xce>
 8000116:	0a03      	lsrs	r3, r0, #8
 8000118:	428b      	cmp	r3, r1
 800011a:	d344      	bcc.n	80001a6 <__udivsi3+0x9e>
 800011c:	0b03      	lsrs	r3, r0, #12
 800011e:	428b      	cmp	r3, r1
 8000120:	d328      	bcc.n	8000174 <__udivsi3+0x6c>
 8000122:	0c03      	lsrs	r3, r0, #16
 8000124:	428b      	cmp	r3, r1
 8000126:	d30d      	bcc.n	8000144 <__udivsi3+0x3c>
 8000128:	22ff      	movs	r2, #255	; 0xff
 800012a:	0209      	lsls	r1, r1, #8
 800012c:	ba12      	rev	r2, r2
 800012e:	0c03      	lsrs	r3, r0, #16
 8000130:	428b      	cmp	r3, r1
 8000132:	d302      	bcc.n	800013a <__udivsi3+0x32>
 8000134:	1212      	asrs	r2, r2, #8
 8000136:	0209      	lsls	r1, r1, #8
 8000138:	d065      	beq.n	8000206 <__udivsi3+0xfe>
 800013a:	0b03      	lsrs	r3, r0, #12
 800013c:	428b      	cmp	r3, r1
 800013e:	d319      	bcc.n	8000174 <__udivsi3+0x6c>
 8000140:	e000      	b.n	8000144 <__udivsi3+0x3c>
 8000142:	0a09      	lsrs	r1, r1, #8
 8000144:	0bc3      	lsrs	r3, r0, #15
 8000146:	428b      	cmp	r3, r1
 8000148:	d301      	bcc.n	800014e <__udivsi3+0x46>
 800014a:	03cb      	lsls	r3, r1, #15
 800014c:	1ac0      	subs	r0, r0, r3
 800014e:	4152      	adcs	r2, r2
 8000150:	0b83      	lsrs	r3, r0, #14
 8000152:	428b      	cmp	r3, r1
 8000154:	d301      	bcc.n	800015a <__udivsi3+0x52>
 8000156:	038b      	lsls	r3, r1, #14
 8000158:	1ac0      	subs	r0, r0, r3
 800015a:	4152      	adcs	r2, r2
 800015c:	0b43      	lsrs	r3, r0, #13
 800015e:	428b      	cmp	r3, r1
 8000160:	d301      	bcc.n	8000166 <__udivsi3+0x5e>
 8000162:	034b      	lsls	r3, r1, #13
 8000164:	1ac0      	subs	r0, r0, r3
 8000166:	4152      	adcs	r2, r2
 8000168:	0b03      	lsrs	r3, r0, #12
 800016a:	428b      	cmp	r3, r1
 800016c:	d301      	bcc.n	8000172 <__udivsi3+0x6a>
 800016e:	030b      	lsls	r3, r1, #12
 8000170:	1ac0      	subs	r0, r0, r3
 8000172:	4152      	adcs	r2, r2
 8000174:	0ac3      	lsrs	r3, r0, #11
 8000176:	428b      	cmp	r3, r1
 8000178:	d301      	bcc.n	800017e <__udivsi3+0x76>
 800017a:	02cb      	lsls	r3, r1, #11
 800017c:	1ac0      	subs	r0, r0, r3
 800017e:	4152      	adcs	r2, r2
 8000180:	0a83      	lsrs	r3, r0, #10
 8000182:	428b      	cmp	r3, r1
 8000184:	d301      	bcc.n	800018a <__udivsi3+0x82>
 8000186:	028b      	lsls	r3, r1, #10
 8000188:	1ac0      	subs	r0, r0, r3
 800018a:	4152      	adcs	r2, r2
 800018c:	0a43      	lsrs	r3, r0, #9
 800018e:	428b      	cmp	r3, r1
 8000190:	d301      	bcc.n	8000196 <__udivsi3+0x8e>
 8000192:	024b      	lsls	r3, r1, #9
 8000194:	1ac0      	subs	r0, r0, r3
 8000196:	4152      	adcs	r2, r2
 8000198:	0a03      	lsrs	r3, r0, #8
 800019a:	428b      	cmp	r3, r1
 800019c:	d301      	bcc.n	80001a2 <__udivsi3+0x9a>
 800019e:	020b      	lsls	r3, r1, #8
 80001a0:	1ac0      	subs	r0, r0, r3
 80001a2:	4152      	adcs	r2, r2
 80001a4:	d2cd      	bcs.n	8000142 <__udivsi3+0x3a>
 80001a6:	09c3      	lsrs	r3, r0, #7
 80001a8:	428b      	cmp	r3, r1
 80001aa:	d301      	bcc.n	80001b0 <__udivsi3+0xa8>
 80001ac:	01cb      	lsls	r3, r1, #7
 80001ae:	1ac0      	subs	r0, r0, r3
 80001b0:	4152      	adcs	r2, r2
 80001b2:	0983      	lsrs	r3, r0, #6
 80001b4:	428b      	cmp	r3, r1
 80001b6:	d301      	bcc.n	80001bc <__udivsi3+0xb4>
 80001b8:	018b      	lsls	r3, r1, #6
 80001ba:	1ac0      	subs	r0, r0, r3
 80001bc:	4152      	adcs	r2, r2
 80001be:	0943      	lsrs	r3, r0, #5
 80001c0:	428b      	cmp	r3, r1
 80001c2:	d301      	bcc.n	80001c8 <__udivsi3+0xc0>
 80001c4:	014b      	lsls	r3, r1, #5
 80001c6:	1ac0      	subs	r0, r0, r3
 80001c8:	4152      	adcs	r2, r2
 80001ca:	0903      	lsrs	r3, r0, #4
 80001cc:	428b      	cmp	r3, r1
 80001ce:	d301      	bcc.n	80001d4 <__udivsi3+0xcc>
 80001d0:	010b      	lsls	r3, r1, #4
 80001d2:	1ac0      	subs	r0, r0, r3
 80001d4:	4152      	adcs	r2, r2
 80001d6:	08c3      	lsrs	r3, r0, #3
 80001d8:	428b      	cmp	r3, r1
 80001da:	d301      	bcc.n	80001e0 <__udivsi3+0xd8>
 80001dc:	00cb      	lsls	r3, r1, #3
 80001de:	1ac0      	subs	r0, r0, r3
 80001e0:	4152      	adcs	r2, r2
 80001e2:	0883      	lsrs	r3, r0, #2
 80001e4:	428b      	cmp	r3, r1
 80001e6:	d301      	bcc.n	80001ec <__udivsi3+0xe4>
 80001e8:	008b      	lsls	r3, r1, #2
 80001ea:	1ac0      	subs	r0, r0, r3
 80001ec:	4152      	adcs	r2, r2
 80001ee:	0843      	lsrs	r3, r0, #1
 80001f0:	428b      	cmp	r3, r1
 80001f2:	d301      	bcc.n	80001f8 <__udivsi3+0xf0>
 80001f4:	004b      	lsls	r3, r1, #1
 80001f6:	1ac0      	subs	r0, r0, r3
 80001f8:	4152      	adcs	r2, r2
 80001fa:	1a41      	subs	r1, r0, r1
 80001fc:	d200      	bcs.n	8000200 <__udivsi3+0xf8>
 80001fe:	4601      	mov	r1, r0
 8000200:	4152      	adcs	r2, r2
 8000202:	4610      	mov	r0, r2
 8000204:	4770      	bx	lr
 8000206:	e7ff      	b.n	8000208 <__udivsi3+0x100>
 8000208:	b501      	push	{r0, lr}
 800020a:	2000      	movs	r0, #0
 800020c:	f000 f8f0 	bl	80003f0 <__aeabi_idiv0>
 8000210:	bd02      	pop	{r1, pc}
 8000212:	46c0      	nop			; (mov r8, r8)

08000214 <__aeabi_uidivmod>:
 8000214:	2900      	cmp	r1, #0
 8000216:	d0f7      	beq.n	8000208 <__udivsi3+0x100>
 8000218:	e776      	b.n	8000108 <__udivsi3>
 800021a:	4770      	bx	lr

0800021c <__divsi3>:
 800021c:	4603      	mov	r3, r0
 800021e:	430b      	orrs	r3, r1
 8000220:	d47f      	bmi.n	8000322 <__divsi3+0x106>
 8000222:	2200      	movs	r2, #0
 8000224:	0843      	lsrs	r3, r0, #1
 8000226:	428b      	cmp	r3, r1
 8000228:	d374      	bcc.n	8000314 <__divsi3+0xf8>
 800022a:	0903      	lsrs	r3, r0, #4
 800022c:	428b      	cmp	r3, r1
 800022e:	d35f      	bcc.n	80002f0 <__divsi3+0xd4>
 8000230:	0a03      	lsrs	r3, r0, #8
 8000232:	428b      	cmp	r3, r1
 8000234:	d344      	bcc.n	80002c0 <__divsi3+0xa4>
 8000236:	0b03      	lsrs	r3, r0, #12
 8000238:	428b      	cmp	r3, r1
 800023a:	d328      	bcc.n	800028e <__divsi3+0x72>
 800023c:	0c03      	lsrs	r3, r0, #16
 800023e:	428b      	cmp	r3, r1
 8000240:	d30d      	bcc.n	800025e <__divsi3+0x42>
 8000242:	22ff      	movs	r2, #255	; 0xff
 8000244:	0209      	lsls	r1, r1, #8
 8000246:	ba12      	rev	r2, r2
 8000248:	0c03      	lsrs	r3, r0, #16
 800024a:	428b      	cmp	r3, r1
 800024c:	d302      	bcc.n	8000254 <__divsi3+0x38>
 800024e:	1212      	asrs	r2, r2, #8
 8000250:	0209      	lsls	r1, r1, #8
 8000252:	d065      	beq.n	8000320 <__divsi3+0x104>
 8000254:	0b03      	lsrs	r3, r0, #12
 8000256:	428b      	cmp	r3, r1
 8000258:	d319      	bcc.n	800028e <__divsi3+0x72>
 800025a:	e000      	b.n	800025e <__divsi3+0x42>
 800025c:	0a09      	lsrs	r1, r1, #8
 800025e:	0bc3      	lsrs	r3, r0, #15
 8000260:	428b      	cmp	r3, r1
 8000262:	d301      	bcc.n	8000268 <__divsi3+0x4c>
 8000264:	03cb      	lsls	r3, r1, #15
 8000266:	1ac0      	subs	r0, r0, r3
 8000268:	4152      	adcs	r2, r2
 800026a:	0b83      	lsrs	r3, r0, #14
 800026c:	428b      	cmp	r3, r1
 800026e:	d301      	bcc.n	8000274 <__divsi3+0x58>
 8000270:	038b      	lsls	r3, r1, #14
 8000272:	1ac0      	subs	r0, r0, r3
 8000274:	4152      	adcs	r2, r2
 8000276:	0b43      	lsrs	r3, r0, #13
 8000278:	428b      	cmp	r3, r1
 800027a:	d301      	bcc.n	8000280 <__divsi3+0x64>
 800027c:	034b      	lsls	r3, r1, #13
 800027e:	1ac0      	subs	r0, r0, r3
 8000280:	4152      	adcs	r2, r2
 8000282:	0b03      	lsrs	r3, r0, #12
 8000284:	428b      	cmp	r3, r1
 8000286:	d301      	bcc.n	800028c <__divsi3+0x70>
 8000288:	030b      	lsls	r3, r1, #12
 800028a:	1ac0      	subs	r0, r0, r3
 800028c:	4152      	adcs	r2, r2
 800028e:	0ac3      	lsrs	r3, r0, #11
 8000290:	428b      	cmp	r3, r1
 8000292:	d301      	bcc.n	8000298 <__divsi3+0x7c>
 8000294:	02cb      	lsls	r3, r1, #11
 8000296:	1ac0      	subs	r0, r0, r3
 8000298:	4152      	adcs	r2, r2
 800029a:	0a83      	lsrs	r3, r0, #10
 800029c:	428b      	cmp	r3, r1
 800029e:	d301      	bcc.n	80002a4 <__divsi3+0x88>
 80002a0:	028b      	lsls	r3, r1, #10
 80002a2:	1ac0      	subs	r0, r0, r3
 80002a4:	4152      	adcs	r2, r2
 80002a6:	0a43      	lsrs	r3, r0, #9
 80002a8:	428b      	cmp	r3, r1
 80002aa:	d301      	bcc.n	80002b0 <__divsi3+0x94>
 80002ac:	024b      	lsls	r3, r1, #9
 80002ae:	1ac0      	subs	r0, r0, r3
 80002b0:	4152      	adcs	r2, r2
 80002b2:	0a03      	lsrs	r3, r0, #8
 80002b4:	428b      	cmp	r3, r1
 80002b6:	d301      	bcc.n	80002bc <__divsi3+0xa0>
 80002b8:	020b      	lsls	r3, r1, #8
 80002ba:	1ac0      	subs	r0, r0, r3
 80002bc:	4152      	adcs	r2, r2
 80002be:	d2cd      	bcs.n	800025c <__divsi3+0x40>
 80002c0:	09c3      	lsrs	r3, r0, #7
 80002c2:	428b      	cmp	r3, r1
 80002c4:	d301      	bcc.n	80002ca <__divsi3+0xae>
 80002c6:	01cb      	lsls	r3, r1, #7
 80002c8:	1ac0      	subs	r0, r0, r3
 80002ca:	4152      	adcs	r2, r2
 80002cc:	0983      	lsrs	r3, r0, #6
 80002ce:	428b      	cmp	r3, r1
 80002d0:	d301      	bcc.n	80002d6 <__divsi3+0xba>
 80002d2:	018b      	lsls	r3, r1, #6
 80002d4:	1ac0      	subs	r0, r0, r3
 80002d6:	4152      	adcs	r2, r2
 80002d8:	0943      	lsrs	r3, r0, #5
 80002da:	428b      	cmp	r3, r1
 80002dc:	d301      	bcc.n	80002e2 <__divsi3+0xc6>
 80002de:	014b      	lsls	r3, r1, #5
 80002e0:	1ac0      	subs	r0, r0, r3
 80002e2:	4152      	adcs	r2, r2
 80002e4:	0903      	lsrs	r3, r0, #4
 80002e6:	428b      	cmp	r3, r1
 80002e8:	d301      	bcc.n	80002ee <__divsi3+0xd2>
 80002ea:	010b      	lsls	r3, r1, #4
 80002ec:	1ac0      	subs	r0, r0, r3
 80002ee:	4152      	adcs	r2, r2
 80002f0:	08c3      	lsrs	r3, r0, #3
 80002f2:	428b      	cmp	r3, r1
 80002f4:	d301      	bcc.n	80002fa <__divsi3+0xde>
 80002f6:	00cb      	lsls	r3, r1, #3
 80002f8:	1ac0      	subs	r0, r0, r3
 80002fa:	4152      	adcs	r2, r2
 80002fc:	0883      	lsrs	r3, r0, #2
 80002fe:	428b      	cmp	r3, r1
 8000300:	d301      	bcc.n	8000306 <__divsi3+0xea>
 8000302:	008b      	lsls	r3, r1, #2
 8000304:	1ac0      	subs	r0, r0, r3
 8000306:	4152      	adcs	r2, r2
 8000308:	0843      	lsrs	r3, r0, #1
 800030a:	428b      	cmp	r3, r1
 800030c:	d301      	bcc.n	8000312 <__divsi3+0xf6>
 800030e:	004b      	lsls	r3, r1, #1
 8000310:	1ac0      	subs	r0, r0, r3
 8000312:	4152      	adcs	r2, r2
 8000314:	1a41      	subs	r1, r0, r1
 8000316:	d200      	bcs.n	800031a <__divsi3+0xfe>
 8000318:	4601      	mov	r1, r0
 800031a:	4152      	adcs	r2, r2
 800031c:	4610      	mov	r0, r2
 800031e:	4770      	bx	lr
 8000320:	e05d      	b.n	80003de <__divsi3+0x1c2>
 8000322:	0fca      	lsrs	r2, r1, #31
 8000324:	d000      	beq.n	8000328 <__divsi3+0x10c>
 8000326:	4249      	negs	r1, r1
 8000328:	1003      	asrs	r3, r0, #32
 800032a:	d300      	bcc.n	800032e <__divsi3+0x112>
 800032c:	4240      	negs	r0, r0
 800032e:	4053      	eors	r3, r2
 8000330:	2200      	movs	r2, #0
 8000332:	469c      	mov	ip, r3
 8000334:	0903      	lsrs	r3, r0, #4
 8000336:	428b      	cmp	r3, r1
 8000338:	d32d      	bcc.n	8000396 <__divsi3+0x17a>
 800033a:	0a03      	lsrs	r3, r0, #8
 800033c:	428b      	cmp	r3, r1
 800033e:	d312      	bcc.n	8000366 <__divsi3+0x14a>
 8000340:	22fc      	movs	r2, #252	; 0xfc
 8000342:	0189      	lsls	r1, r1, #6
 8000344:	ba12      	rev	r2, r2
 8000346:	0a03      	lsrs	r3, r0, #8
 8000348:	428b      	cmp	r3, r1
 800034a:	d30c      	bcc.n	8000366 <__divsi3+0x14a>
 800034c:	0189      	lsls	r1, r1, #6
 800034e:	1192      	asrs	r2, r2, #6
 8000350:	428b      	cmp	r3, r1
 8000352:	d308      	bcc.n	8000366 <__divsi3+0x14a>
 8000354:	0189      	lsls	r1, r1, #6
 8000356:	1192      	asrs	r2, r2, #6
 8000358:	428b      	cmp	r3, r1
 800035a:	d304      	bcc.n	8000366 <__divsi3+0x14a>
 800035c:	0189      	lsls	r1, r1, #6
 800035e:	d03a      	beq.n	80003d6 <__divsi3+0x1ba>
 8000360:	1192      	asrs	r2, r2, #6
 8000362:	e000      	b.n	8000366 <__divsi3+0x14a>
 8000364:	0989      	lsrs	r1, r1, #6
 8000366:	09c3      	lsrs	r3, r0, #7
 8000368:	428b      	cmp	r3, r1
 800036a:	d301      	bcc.n	8000370 <__divsi3+0x154>
 800036c:	01cb      	lsls	r3, r1, #7
 800036e:	1ac0      	subs	r0, r0, r3
 8000370:	4152      	adcs	r2, r2
 8000372:	0983      	lsrs	r3, r0, #6
 8000374:	428b      	cmp	r3, r1
 8000376:	d301      	bcc.n	800037c <__divsi3+0x160>
 8000378:	018b      	lsls	r3, r1, #6
 800037a:	1ac0      	subs	r0, r0, r3
 800037c:	4152      	adcs	r2, r2
 800037e:	0943      	lsrs	r3, r0, #5
 8000380:	428b      	cmp	r3, r1
 8000382:	d301      	bcc.n	8000388 <__divsi3+0x16c>
 8000384:	014b      	lsls	r3, r1, #5
 8000386:	1ac0      	subs	r0, r0, r3
 8000388:	4152      	adcs	r2, r2
 800038a:	0903      	lsrs	r3, r0, #4
 800038c:	428b      	cmp	r3, r1
 800038e:	d301      	bcc.n	8000394 <__divsi3+0x178>
 8000390:	010b      	lsls	r3, r1, #4
 8000392:	1ac0      	subs	r0, r0, r3
 8000394:	4152      	adcs	r2, r2
 8000396:	08c3      	lsrs	r3, r0, #3
 8000398:	428b      	cmp	r3, r1
 800039a:	d301      	bcc.n	80003a0 <__divsi3+0x184>
 800039c:	00cb      	lsls	r3, r1, #3
 800039e:	1ac0      	subs	r0, r0, r3
 80003a0:	4152      	adcs	r2, r2
 80003a2:	0883      	lsrs	r3, r0, #2
 80003a4:	428b      	cmp	r3, r1
 80003a6:	d301      	bcc.n	80003ac <__divsi3+0x190>
 80003a8:	008b      	lsls	r3, r1, #2
 80003aa:	1ac0      	subs	r0, r0, r3
 80003ac:	4152      	adcs	r2, r2
 80003ae:	d2d9      	bcs.n	8000364 <__divsi3+0x148>
 80003b0:	0843      	lsrs	r3, r0, #1
 80003b2:	428b      	cmp	r3, r1
 80003b4:	d301      	bcc.n	80003ba <__divsi3+0x19e>
 80003b6:	004b      	lsls	r3, r1, #1
 80003b8:	1ac0      	subs	r0, r0, r3
 80003ba:	4152      	adcs	r2, r2
 80003bc:	1a41      	subs	r1, r0, r1
 80003be:	d200      	bcs.n	80003c2 <__divsi3+0x1a6>
 80003c0:	4601      	mov	r1, r0
 80003c2:	4663      	mov	r3, ip
 80003c4:	4152      	adcs	r2, r2
 80003c6:	105b      	asrs	r3, r3, #1
 80003c8:	4610      	mov	r0, r2
 80003ca:	d301      	bcc.n	80003d0 <__divsi3+0x1b4>
 80003cc:	4240      	negs	r0, r0
 80003ce:	2b00      	cmp	r3, #0
 80003d0:	d500      	bpl.n	80003d4 <__divsi3+0x1b8>
 80003d2:	4249      	negs	r1, r1
 80003d4:	4770      	bx	lr
 80003d6:	4663      	mov	r3, ip
 80003d8:	105b      	asrs	r3, r3, #1
 80003da:	d300      	bcc.n	80003de <__divsi3+0x1c2>
 80003dc:	4240      	negs	r0, r0
 80003de:	b501      	push	{r0, lr}
 80003e0:	2000      	movs	r0, #0
 80003e2:	f000 f805 	bl	80003f0 <__aeabi_idiv0>
 80003e6:	bd02      	pop	{r1, pc}

080003e8 <__aeabi_idivmod>:
 80003e8:	2900      	cmp	r1, #0
 80003ea:	d0f8      	beq.n	80003de <__divsi3+0x1c2>
 80003ec:	e716      	b.n	800021c <__divsi3>
 80003ee:	4770      	bx	lr

080003f0 <__aeabi_idiv0>:
 80003f0:	4770      	bx	lr
 80003f2:	46c0      	nop			; (mov r8, r8)

080003f4 <__aeabi_cfrcmple>:
 80003f4:	4684      	mov	ip, r0
 80003f6:	0008      	movs	r0, r1
 80003f8:	4661      	mov	r1, ip
 80003fa:	e7ff      	b.n	80003fc <__aeabi_cfcmpeq>

080003fc <__aeabi_cfcmpeq>:
 80003fc:	b51f      	push	{r0, r1, r2, r3, r4, lr}
 80003fe:	f000 fb6d 	bl	8000adc <__lesf2>
 8000402:	2800      	cmp	r0, #0
 8000404:	d401      	bmi.n	800040a <__aeabi_cfcmpeq+0xe>
 8000406:	2100      	movs	r1, #0
 8000408:	42c8      	cmn	r0, r1
 800040a:	bd1f      	pop	{r0, r1, r2, r3, r4, pc}

0800040c <__aeabi_fcmpeq>:
 800040c:	b510      	push	{r4, lr}
 800040e:	f000 faf9 	bl	8000a04 <__eqsf2>
 8000412:	4240      	negs	r0, r0
 8000414:	3001      	adds	r0, #1
 8000416:	bd10      	pop	{r4, pc}

08000418 <__aeabi_fcmplt>:
 8000418:	b510      	push	{r4, lr}
 800041a:	f000 fb5f 	bl	8000adc <__lesf2>
 800041e:	2800      	cmp	r0, #0
 8000420:	db01      	blt.n	8000426 <__aeabi_fcmplt+0xe>
 8000422:	2000      	movs	r0, #0
 8000424:	bd10      	pop	{r4, pc}
 8000426:	2001      	movs	r0, #1
 8000428:	bd10      	pop	{r4, pc}
 800042a:	46c0      	nop			; (mov r8, r8)

0800042c <__aeabi_fcmple>:
 800042c:	b510      	push	{r4, lr}
 800042e:	f000 fb55 	bl	8000adc <__lesf2>
 8000432:	2800      	cmp	r0, #0
 8000434:	dd01      	ble.n	800043a <__aeabi_fcmple+0xe>
 8000436:	2000      	movs	r0, #0
 8000438:	bd10      	pop	{r4, pc}
 800043a:	2001      	movs	r0, #1
 800043c:	bd10      	pop	{r4, pc}
 800043e:	46c0      	nop			; (mov r8, r8)

08000440 <__aeabi_fcmpgt>:
 8000440:	b510      	push	{r4, lr}
 8000442:	f000 fb05 	bl	8000a50 <__gesf2>
 8000446:	2800      	cmp	r0, #0
 8000448:	dc01      	bgt.n	800044e <__aeabi_fcmpgt+0xe>
 800044a:	2000      	movs	r0, #0
 800044c:	bd10      	pop	{r4, pc}
 800044e:	2001      	movs	r0, #1
 8000450:	bd10      	pop	{r4, pc}
 8000452:	46c0      	nop			; (mov r8, r8)

08000454 <__aeabi_fcmpge>:
 8000454:	b510      	push	{r4, lr}
 8000456:	f000 fafb 	bl	8000a50 <__gesf2>
 800045a:	2800      	cmp	r0, #0
 800045c:	da01      	bge.n	8000462 <__aeabi_fcmpge+0xe>
 800045e:	2000      	movs	r0, #0
 8000460:	bd10      	pop	{r4, pc}
 8000462:	2001      	movs	r0, #1
 8000464:	bd10      	pop	{r4, pc}
 8000466:	46c0      	nop			; (mov r8, r8)

08000468 <__aeabi_f2uiz>:
 8000468:	219e      	movs	r1, #158	; 0x9e
 800046a:	b510      	push	{r4, lr}
 800046c:	05c9      	lsls	r1, r1, #23
 800046e:	1c04      	adds	r4, r0, #0
 8000470:	f7ff fff0 	bl	8000454 <__aeabi_fcmpge>
 8000474:	2800      	cmp	r0, #0
 8000476:	d103      	bne.n	8000480 <__aeabi_f2uiz+0x18>
 8000478:	1c20      	adds	r0, r4, #0
 800047a:	f000 fe47 	bl	800110c <__aeabi_f2iz>
 800047e:	bd10      	pop	{r4, pc}
 8000480:	219e      	movs	r1, #158	; 0x9e
 8000482:	1c20      	adds	r0, r4, #0
 8000484:	05c9      	lsls	r1, r1, #23
 8000486:	f000 fc93 	bl	8000db0 <__aeabi_fsub>
 800048a:	f000 fe3f 	bl	800110c <__aeabi_f2iz>
 800048e:	2380      	movs	r3, #128	; 0x80
 8000490:	061b      	lsls	r3, r3, #24
 8000492:	469c      	mov	ip, r3
 8000494:	4460      	add	r0, ip
 8000496:	e7f2      	b.n	800047e <__aeabi_f2uiz+0x16>

08000498 <__aeabi_fadd>:
 8000498:	b5f0      	push	{r4, r5, r6, r7, lr}
 800049a:	46c6      	mov	lr, r8
 800049c:	0243      	lsls	r3, r0, #9
 800049e:	0a5b      	lsrs	r3, r3, #9
 80004a0:	024e      	lsls	r6, r1, #9
 80004a2:	0045      	lsls	r5, r0, #1
 80004a4:	004f      	lsls	r7, r1, #1
 80004a6:	00da      	lsls	r2, r3, #3
 80004a8:	0fc4      	lsrs	r4, r0, #31
 80004aa:	469c      	mov	ip, r3
 80004ac:	0a70      	lsrs	r0, r6, #9
 80004ae:	4690      	mov	r8, r2
 80004b0:	b500      	push	{lr}
 80004b2:	0e2d      	lsrs	r5, r5, #24
 80004b4:	0e3f      	lsrs	r7, r7, #24
 80004b6:	0fc9      	lsrs	r1, r1, #31
 80004b8:	09b6      	lsrs	r6, r6, #6
 80004ba:	428c      	cmp	r4, r1
 80004bc:	d04b      	beq.n	8000556 <__aeabi_fadd+0xbe>
 80004be:	1bea      	subs	r2, r5, r7
 80004c0:	2a00      	cmp	r2, #0
 80004c2:	dd36      	ble.n	8000532 <__aeabi_fadd+0x9a>
 80004c4:	2f00      	cmp	r7, #0
 80004c6:	d061      	beq.n	800058c <__aeabi_fadd+0xf4>
 80004c8:	2dff      	cmp	r5, #255	; 0xff
 80004ca:	d100      	bne.n	80004ce <__aeabi_fadd+0x36>
 80004cc:	e0ad      	b.n	800062a <__aeabi_fadd+0x192>
 80004ce:	2380      	movs	r3, #128	; 0x80
 80004d0:	04db      	lsls	r3, r3, #19
 80004d2:	431e      	orrs	r6, r3
 80004d4:	2a1b      	cmp	r2, #27
 80004d6:	dc00      	bgt.n	80004da <__aeabi_fadd+0x42>
 80004d8:	e0d3      	b.n	8000682 <__aeabi_fadd+0x1ea>
 80004da:	2001      	movs	r0, #1
 80004dc:	4643      	mov	r3, r8
 80004de:	1a18      	subs	r0, r3, r0
 80004e0:	0143      	lsls	r3, r0, #5
 80004e2:	d400      	bmi.n	80004e6 <__aeabi_fadd+0x4e>
 80004e4:	e08c      	b.n	8000600 <__aeabi_fadd+0x168>
 80004e6:	0180      	lsls	r0, r0, #6
 80004e8:	0987      	lsrs	r7, r0, #6
 80004ea:	0038      	movs	r0, r7
 80004ec:	f000 febe 	bl	800126c <__clzsi2>
 80004f0:	3805      	subs	r0, #5
 80004f2:	4087      	lsls	r7, r0
 80004f4:	4285      	cmp	r5, r0
 80004f6:	dc00      	bgt.n	80004fa <__aeabi_fadd+0x62>
 80004f8:	e0b6      	b.n	8000668 <__aeabi_fadd+0x1d0>
 80004fa:	1a2d      	subs	r5, r5, r0
 80004fc:	48b3      	ldr	r0, [pc, #716]	; (80007cc <__aeabi_fadd+0x334>)
 80004fe:	4038      	ands	r0, r7
 8000500:	0743      	lsls	r3, r0, #29
 8000502:	d004      	beq.n	800050e <__aeabi_fadd+0x76>
 8000504:	230f      	movs	r3, #15
 8000506:	4003      	ands	r3, r0
 8000508:	2b04      	cmp	r3, #4
 800050a:	d000      	beq.n	800050e <__aeabi_fadd+0x76>
 800050c:	3004      	adds	r0, #4
 800050e:	0143      	lsls	r3, r0, #5
 8000510:	d400      	bmi.n	8000514 <__aeabi_fadd+0x7c>
 8000512:	e078      	b.n	8000606 <__aeabi_fadd+0x16e>
 8000514:	1c6a      	adds	r2, r5, #1
 8000516:	2dfe      	cmp	r5, #254	; 0xfe
 8000518:	d065      	beq.n	80005e6 <__aeabi_fadd+0x14e>
 800051a:	0180      	lsls	r0, r0, #6
 800051c:	0a43      	lsrs	r3, r0, #9
 800051e:	469c      	mov	ip, r3
 8000520:	b2d2      	uxtb	r2, r2
 8000522:	4663      	mov	r3, ip
 8000524:	05d0      	lsls	r0, r2, #23
 8000526:	4318      	orrs	r0, r3
 8000528:	07e4      	lsls	r4, r4, #31
 800052a:	4320      	orrs	r0, r4
 800052c:	bc80      	pop	{r7}
 800052e:	46b8      	mov	r8, r7
 8000530:	bdf0      	pop	{r4, r5, r6, r7, pc}
 8000532:	2a00      	cmp	r2, #0
 8000534:	d035      	beq.n	80005a2 <__aeabi_fadd+0x10a>
 8000536:	1b7a      	subs	r2, r7, r5
 8000538:	2d00      	cmp	r5, #0
 800053a:	d000      	beq.n	800053e <__aeabi_fadd+0xa6>
 800053c:	e0af      	b.n	800069e <__aeabi_fadd+0x206>
 800053e:	4643      	mov	r3, r8
 8000540:	2b00      	cmp	r3, #0
 8000542:	d100      	bne.n	8000546 <__aeabi_fadd+0xae>
 8000544:	e0a7      	b.n	8000696 <__aeabi_fadd+0x1fe>
 8000546:	1e53      	subs	r3, r2, #1
 8000548:	2a01      	cmp	r2, #1
 800054a:	d100      	bne.n	800054e <__aeabi_fadd+0xb6>
 800054c:	e12f      	b.n	80007ae <__aeabi_fadd+0x316>
 800054e:	2aff      	cmp	r2, #255	; 0xff
 8000550:	d069      	beq.n	8000626 <__aeabi_fadd+0x18e>
 8000552:	001a      	movs	r2, r3
 8000554:	e0aa      	b.n	80006ac <__aeabi_fadd+0x214>
 8000556:	1be9      	subs	r1, r5, r7
 8000558:	2900      	cmp	r1, #0
 800055a:	dd70      	ble.n	800063e <__aeabi_fadd+0x1a6>
 800055c:	2f00      	cmp	r7, #0
 800055e:	d037      	beq.n	80005d0 <__aeabi_fadd+0x138>
 8000560:	2dff      	cmp	r5, #255	; 0xff
 8000562:	d062      	beq.n	800062a <__aeabi_fadd+0x192>
 8000564:	2380      	movs	r3, #128	; 0x80
 8000566:	04db      	lsls	r3, r3, #19
 8000568:	431e      	orrs	r6, r3
 800056a:	291b      	cmp	r1, #27
 800056c:	dc00      	bgt.n	8000570 <__aeabi_fadd+0xd8>
 800056e:	e0b0      	b.n	80006d2 <__aeabi_fadd+0x23a>
 8000570:	2001      	movs	r0, #1
 8000572:	4440      	add	r0, r8
 8000574:	0143      	lsls	r3, r0, #5
 8000576:	d543      	bpl.n	8000600 <__aeabi_fadd+0x168>
 8000578:	3501      	adds	r5, #1
 800057a:	2dff      	cmp	r5, #255	; 0xff
 800057c:	d033      	beq.n	80005e6 <__aeabi_fadd+0x14e>
 800057e:	2301      	movs	r3, #1
 8000580:	4a93      	ldr	r2, [pc, #588]	; (80007d0 <__aeabi_fadd+0x338>)
 8000582:	4003      	ands	r3, r0
 8000584:	0840      	lsrs	r0, r0, #1
 8000586:	4010      	ands	r0, r2
 8000588:	4318      	orrs	r0, r3
 800058a:	e7b9      	b.n	8000500 <__aeabi_fadd+0x68>
 800058c:	2e00      	cmp	r6, #0
 800058e:	d100      	bne.n	8000592 <__aeabi_fadd+0xfa>
 8000590:	e083      	b.n	800069a <__aeabi_fadd+0x202>
 8000592:	1e51      	subs	r1, r2, #1
 8000594:	2a01      	cmp	r2, #1
 8000596:	d100      	bne.n	800059a <__aeabi_fadd+0x102>
 8000598:	e0d8      	b.n	800074c <__aeabi_fadd+0x2b4>
 800059a:	2aff      	cmp	r2, #255	; 0xff
 800059c:	d045      	beq.n	800062a <__aeabi_fadd+0x192>
 800059e:	000a      	movs	r2, r1
 80005a0:	e798      	b.n	80004d4 <__aeabi_fadd+0x3c>
 80005a2:	27fe      	movs	r7, #254	; 0xfe
 80005a4:	1c6a      	adds	r2, r5, #1
 80005a6:	4217      	tst	r7, r2
 80005a8:	d000      	beq.n	80005ac <__aeabi_fadd+0x114>
 80005aa:	e086      	b.n	80006ba <__aeabi_fadd+0x222>
 80005ac:	2d00      	cmp	r5, #0
 80005ae:	d000      	beq.n	80005b2 <__aeabi_fadd+0x11a>
 80005b0:	e0b7      	b.n	8000722 <__aeabi_fadd+0x28a>
 80005b2:	4643      	mov	r3, r8
 80005b4:	2b00      	cmp	r3, #0
 80005b6:	d100      	bne.n	80005ba <__aeabi_fadd+0x122>
 80005b8:	e0f3      	b.n	80007a2 <__aeabi_fadd+0x30a>
 80005ba:	2200      	movs	r2, #0
 80005bc:	2e00      	cmp	r6, #0
 80005be:	d0b0      	beq.n	8000522 <__aeabi_fadd+0x8a>
 80005c0:	1b98      	subs	r0, r3, r6
 80005c2:	0143      	lsls	r3, r0, #5
 80005c4:	d400      	bmi.n	80005c8 <__aeabi_fadd+0x130>
 80005c6:	e0fa      	b.n	80007be <__aeabi_fadd+0x326>
 80005c8:	4643      	mov	r3, r8
 80005ca:	000c      	movs	r4, r1
 80005cc:	1af0      	subs	r0, r6, r3
 80005ce:	e797      	b.n	8000500 <__aeabi_fadd+0x68>
 80005d0:	2e00      	cmp	r6, #0
 80005d2:	d100      	bne.n	80005d6 <__aeabi_fadd+0x13e>
 80005d4:	e0c8      	b.n	8000768 <__aeabi_fadd+0x2d0>
 80005d6:	1e4a      	subs	r2, r1, #1
 80005d8:	2901      	cmp	r1, #1
 80005da:	d100      	bne.n	80005de <__aeabi_fadd+0x146>
 80005dc:	e0ae      	b.n	800073c <__aeabi_fadd+0x2a4>
 80005de:	29ff      	cmp	r1, #255	; 0xff
 80005e0:	d023      	beq.n	800062a <__aeabi_fadd+0x192>
 80005e2:	0011      	movs	r1, r2
 80005e4:	e7c1      	b.n	800056a <__aeabi_fadd+0xd2>
 80005e6:	2300      	movs	r3, #0
 80005e8:	22ff      	movs	r2, #255	; 0xff
 80005ea:	469c      	mov	ip, r3
 80005ec:	e799      	b.n	8000522 <__aeabi_fadd+0x8a>
 80005ee:	21fe      	movs	r1, #254	; 0xfe
 80005f0:	1c6a      	adds	r2, r5, #1
 80005f2:	4211      	tst	r1, r2
 80005f4:	d077      	beq.n	80006e6 <__aeabi_fadd+0x24e>
 80005f6:	2aff      	cmp	r2, #255	; 0xff
 80005f8:	d0f5      	beq.n	80005e6 <__aeabi_fadd+0x14e>
 80005fa:	0015      	movs	r5, r2
 80005fc:	4446      	add	r6, r8
 80005fe:	0870      	lsrs	r0, r6, #1
 8000600:	0743      	lsls	r3, r0, #29
 8000602:	d000      	beq.n	8000606 <__aeabi_fadd+0x16e>
 8000604:	e77e      	b.n	8000504 <__aeabi_fadd+0x6c>
 8000606:	08c3      	lsrs	r3, r0, #3
 8000608:	2dff      	cmp	r5, #255	; 0xff
 800060a:	d00e      	beq.n	800062a <__aeabi_fadd+0x192>
 800060c:	025b      	lsls	r3, r3, #9
 800060e:	0a5b      	lsrs	r3, r3, #9
 8000610:	469c      	mov	ip, r3
 8000612:	b2ea      	uxtb	r2, r5
 8000614:	e785      	b.n	8000522 <__aeabi_fadd+0x8a>
 8000616:	2e00      	cmp	r6, #0
 8000618:	d007      	beq.n	800062a <__aeabi_fadd+0x192>
 800061a:	2280      	movs	r2, #128	; 0x80
 800061c:	03d2      	lsls	r2, r2, #15
 800061e:	4213      	tst	r3, r2
 8000620:	d003      	beq.n	800062a <__aeabi_fadd+0x192>
 8000622:	4210      	tst	r0, r2
 8000624:	d101      	bne.n	800062a <__aeabi_fadd+0x192>
 8000626:	000c      	movs	r4, r1
 8000628:	0003      	movs	r3, r0
 800062a:	2b00      	cmp	r3, #0
 800062c:	d0db      	beq.n	80005e6 <__aeabi_fadd+0x14e>
 800062e:	2080      	movs	r0, #128	; 0x80
 8000630:	03c0      	lsls	r0, r0, #15
 8000632:	4318      	orrs	r0, r3
 8000634:	0240      	lsls	r0, r0, #9
 8000636:	0a43      	lsrs	r3, r0, #9
 8000638:	469c      	mov	ip, r3
 800063a:	22ff      	movs	r2, #255	; 0xff
 800063c:	e771      	b.n	8000522 <__aeabi_fadd+0x8a>
 800063e:	2900      	cmp	r1, #0
 8000640:	d0d5      	beq.n	80005ee <__aeabi_fadd+0x156>
 8000642:	1b7a      	subs	r2, r7, r5
 8000644:	2d00      	cmp	r5, #0
 8000646:	d160      	bne.n	800070a <__aeabi_fadd+0x272>
 8000648:	4643      	mov	r3, r8
 800064a:	2b00      	cmp	r3, #0
 800064c:	d024      	beq.n	8000698 <__aeabi_fadd+0x200>
 800064e:	1e53      	subs	r3, r2, #1
 8000650:	2a01      	cmp	r2, #1
 8000652:	d073      	beq.n	800073c <__aeabi_fadd+0x2a4>
 8000654:	2aff      	cmp	r2, #255	; 0xff
 8000656:	d0e7      	beq.n	8000628 <__aeabi_fadd+0x190>
 8000658:	001a      	movs	r2, r3
 800065a:	2a1b      	cmp	r2, #27
 800065c:	dc00      	bgt.n	8000660 <__aeabi_fadd+0x1c8>
 800065e:	e085      	b.n	800076c <__aeabi_fadd+0x2d4>
 8000660:	2001      	movs	r0, #1
 8000662:	003d      	movs	r5, r7
 8000664:	1980      	adds	r0, r0, r6
 8000666:	e785      	b.n	8000574 <__aeabi_fadd+0xdc>
 8000668:	2320      	movs	r3, #32
 800066a:	003a      	movs	r2, r7
 800066c:	1b45      	subs	r5, r0, r5
 800066e:	0038      	movs	r0, r7
 8000670:	3501      	adds	r5, #1
 8000672:	40ea      	lsrs	r2, r5
 8000674:	1b5d      	subs	r5, r3, r5
 8000676:	40a8      	lsls	r0, r5
 8000678:	1e43      	subs	r3, r0, #1
 800067a:	4198      	sbcs	r0, r3
 800067c:	2500      	movs	r5, #0
 800067e:	4310      	orrs	r0, r2
 8000680:	e73e      	b.n	8000500 <__aeabi_fadd+0x68>
 8000682:	2320      	movs	r3, #32
 8000684:	0030      	movs	r0, r6
 8000686:	1a9b      	subs	r3, r3, r2
 8000688:	0031      	movs	r1, r6
 800068a:	4098      	lsls	r0, r3
 800068c:	40d1      	lsrs	r1, r2
 800068e:	1e43      	subs	r3, r0, #1
 8000690:	4198      	sbcs	r0, r3
 8000692:	4308      	orrs	r0, r1
 8000694:	e722      	b.n	80004dc <__aeabi_fadd+0x44>
 8000696:	000c      	movs	r4, r1
 8000698:	0003      	movs	r3, r0
 800069a:	0015      	movs	r5, r2
 800069c:	e7b4      	b.n	8000608 <__aeabi_fadd+0x170>
 800069e:	2fff      	cmp	r7, #255	; 0xff
 80006a0:	d0c1      	beq.n	8000626 <__aeabi_fadd+0x18e>
 80006a2:	2380      	movs	r3, #128	; 0x80
 80006a4:	4640      	mov	r0, r8
 80006a6:	04db      	lsls	r3, r3, #19
 80006a8:	4318      	orrs	r0, r3
 80006aa:	4680      	mov	r8, r0
 80006ac:	2a1b      	cmp	r2, #27
 80006ae:	dd51      	ble.n	8000754 <__aeabi_fadd+0x2bc>
 80006b0:	2001      	movs	r0, #1
 80006b2:	000c      	movs	r4, r1
 80006b4:	003d      	movs	r5, r7
 80006b6:	1a30      	subs	r0, r6, r0
 80006b8:	e712      	b.n	80004e0 <__aeabi_fadd+0x48>
 80006ba:	4643      	mov	r3, r8
 80006bc:	1b9f      	subs	r7, r3, r6
 80006be:	017b      	lsls	r3, r7, #5
 80006c0:	d42b      	bmi.n	800071a <__aeabi_fadd+0x282>
 80006c2:	2f00      	cmp	r7, #0
 80006c4:	d000      	beq.n	80006c8 <__aeabi_fadd+0x230>
 80006c6:	e710      	b.n	80004ea <__aeabi_fadd+0x52>
 80006c8:	2300      	movs	r3, #0
 80006ca:	2400      	movs	r4, #0
 80006cc:	2200      	movs	r2, #0
 80006ce:	469c      	mov	ip, r3
 80006d0:	e727      	b.n	8000522 <__aeabi_fadd+0x8a>
 80006d2:	2320      	movs	r3, #32
 80006d4:	0032      	movs	r2, r6
 80006d6:	0030      	movs	r0, r6
 80006d8:	40ca      	lsrs	r2, r1
 80006da:	1a59      	subs	r1, r3, r1
 80006dc:	4088      	lsls	r0, r1
 80006de:	1e43      	subs	r3, r0, #1
 80006e0:	4198      	sbcs	r0, r3
 80006e2:	4310      	orrs	r0, r2
 80006e4:	e745      	b.n	8000572 <__aeabi_fadd+0xda>
 80006e6:	2d00      	cmp	r5, #0
 80006e8:	d14a      	bne.n	8000780 <__aeabi_fadd+0x2e8>
 80006ea:	4643      	mov	r3, r8
 80006ec:	2b00      	cmp	r3, #0
 80006ee:	d063      	beq.n	80007b8 <__aeabi_fadd+0x320>
 80006f0:	2200      	movs	r2, #0
 80006f2:	2e00      	cmp	r6, #0
 80006f4:	d100      	bne.n	80006f8 <__aeabi_fadd+0x260>
 80006f6:	e714      	b.n	8000522 <__aeabi_fadd+0x8a>
 80006f8:	0030      	movs	r0, r6
 80006fa:	4440      	add	r0, r8
 80006fc:	0143      	lsls	r3, r0, #5
 80006fe:	d400      	bmi.n	8000702 <__aeabi_fadd+0x26a>
 8000700:	e77e      	b.n	8000600 <__aeabi_fadd+0x168>
 8000702:	4b32      	ldr	r3, [pc, #200]	; (80007cc <__aeabi_fadd+0x334>)
 8000704:	3501      	adds	r5, #1
 8000706:	4018      	ands	r0, r3
 8000708:	e77a      	b.n	8000600 <__aeabi_fadd+0x168>
 800070a:	2fff      	cmp	r7, #255	; 0xff
 800070c:	d08c      	beq.n	8000628 <__aeabi_fadd+0x190>
 800070e:	2380      	movs	r3, #128	; 0x80
 8000710:	4641      	mov	r1, r8
 8000712:	04db      	lsls	r3, r3, #19
 8000714:	4319      	orrs	r1, r3
 8000716:	4688      	mov	r8, r1
 8000718:	e79f      	b.n	800065a <__aeabi_fadd+0x1c2>
 800071a:	4643      	mov	r3, r8
 800071c:	000c      	movs	r4, r1
 800071e:	1af7      	subs	r7, r6, r3
 8000720:	e6e3      	b.n	80004ea <__aeabi_fadd+0x52>
 8000722:	4642      	mov	r2, r8
 8000724:	2a00      	cmp	r2, #0
 8000726:	d000      	beq.n	800072a <__aeabi_fadd+0x292>
 8000728:	e775      	b.n	8000616 <__aeabi_fadd+0x17e>
 800072a:	2e00      	cmp	r6, #0
 800072c:	d000      	beq.n	8000730 <__aeabi_fadd+0x298>
 800072e:	e77a      	b.n	8000626 <__aeabi_fadd+0x18e>
 8000730:	2380      	movs	r3, #128	; 0x80
 8000732:	03db      	lsls	r3, r3, #15
 8000734:	2400      	movs	r4, #0
 8000736:	469c      	mov	ip, r3
 8000738:	22ff      	movs	r2, #255	; 0xff
 800073a:	e6f2      	b.n	8000522 <__aeabi_fadd+0x8a>
 800073c:	0030      	movs	r0, r6
 800073e:	4440      	add	r0, r8
 8000740:	2501      	movs	r5, #1
 8000742:	0143      	lsls	r3, r0, #5
 8000744:	d400      	bmi.n	8000748 <__aeabi_fadd+0x2b0>
 8000746:	e75b      	b.n	8000600 <__aeabi_fadd+0x168>
 8000748:	2502      	movs	r5, #2
 800074a:	e718      	b.n	800057e <__aeabi_fadd+0xe6>
 800074c:	4643      	mov	r3, r8
 800074e:	2501      	movs	r5, #1
 8000750:	1b98      	subs	r0, r3, r6
 8000752:	e6c5      	b.n	80004e0 <__aeabi_fadd+0x48>
 8000754:	2320      	movs	r3, #32
 8000756:	4644      	mov	r4, r8
 8000758:	4640      	mov	r0, r8
 800075a:	40d4      	lsrs	r4, r2
 800075c:	1a9a      	subs	r2, r3, r2
 800075e:	4090      	lsls	r0, r2
 8000760:	1e43      	subs	r3, r0, #1
 8000762:	4198      	sbcs	r0, r3
 8000764:	4320      	orrs	r0, r4
 8000766:	e7a4      	b.n	80006b2 <__aeabi_fadd+0x21a>
 8000768:	000d      	movs	r5, r1
 800076a:	e74d      	b.n	8000608 <__aeabi_fadd+0x170>
 800076c:	2320      	movs	r3, #32
 800076e:	4641      	mov	r1, r8
 8000770:	4640      	mov	r0, r8
 8000772:	40d1      	lsrs	r1, r2
 8000774:	1a9a      	subs	r2, r3, r2
 8000776:	4090      	lsls	r0, r2
 8000778:	1e43      	subs	r3, r0, #1
 800077a:	4198      	sbcs	r0, r3
 800077c:	4308      	orrs	r0, r1
 800077e:	e770      	b.n	8000662 <__aeabi_fadd+0x1ca>
 8000780:	4642      	mov	r2, r8
 8000782:	2a00      	cmp	r2, #0
 8000784:	d100      	bne.n	8000788 <__aeabi_fadd+0x2f0>
 8000786:	e74f      	b.n	8000628 <__aeabi_fadd+0x190>
 8000788:	2e00      	cmp	r6, #0
 800078a:	d100      	bne.n	800078e <__aeabi_fadd+0x2f6>
 800078c:	e74d      	b.n	800062a <__aeabi_fadd+0x192>
 800078e:	2280      	movs	r2, #128	; 0x80
 8000790:	03d2      	lsls	r2, r2, #15
 8000792:	4213      	tst	r3, r2
 8000794:	d100      	bne.n	8000798 <__aeabi_fadd+0x300>
 8000796:	e748      	b.n	800062a <__aeabi_fadd+0x192>
 8000798:	4210      	tst	r0, r2
 800079a:	d000      	beq.n	800079e <__aeabi_fadd+0x306>
 800079c:	e745      	b.n	800062a <__aeabi_fadd+0x192>
 800079e:	0003      	movs	r3, r0
 80007a0:	e743      	b.n	800062a <__aeabi_fadd+0x192>
 80007a2:	2e00      	cmp	r6, #0
 80007a4:	d090      	beq.n	80006c8 <__aeabi_fadd+0x230>
 80007a6:	000c      	movs	r4, r1
 80007a8:	4684      	mov	ip, r0
 80007aa:	2200      	movs	r2, #0
 80007ac:	e6b9      	b.n	8000522 <__aeabi_fadd+0x8a>
 80007ae:	4643      	mov	r3, r8
 80007b0:	000c      	movs	r4, r1
 80007b2:	1af0      	subs	r0, r6, r3
 80007b4:	3501      	adds	r5, #1
 80007b6:	e693      	b.n	80004e0 <__aeabi_fadd+0x48>
 80007b8:	4684      	mov	ip, r0
 80007ba:	2200      	movs	r2, #0
 80007bc:	e6b1      	b.n	8000522 <__aeabi_fadd+0x8a>
 80007be:	2800      	cmp	r0, #0
 80007c0:	d000      	beq.n	80007c4 <__aeabi_fadd+0x32c>
 80007c2:	e71d      	b.n	8000600 <__aeabi_fadd+0x168>
 80007c4:	2300      	movs	r3, #0
 80007c6:	2400      	movs	r4, #0
 80007c8:	469c      	mov	ip, r3
 80007ca:	e6aa      	b.n	8000522 <__aeabi_fadd+0x8a>
 80007cc:	fbffffff 	.word	0xfbffffff
 80007d0:	7dffffff 	.word	0x7dffffff

080007d4 <__aeabi_fdiv>:
 80007d4:	b5f0      	push	{r4, r5, r6, r7, lr}
 80007d6:	464f      	mov	r7, r9
 80007d8:	4646      	mov	r6, r8
 80007da:	46d6      	mov	lr, sl
 80007dc:	0245      	lsls	r5, r0, #9
 80007de:	b5c0      	push	{r6, r7, lr}
 80007e0:	0047      	lsls	r7, r0, #1
 80007e2:	1c0c      	adds	r4, r1, #0
 80007e4:	0a6d      	lsrs	r5, r5, #9
 80007e6:	0e3f      	lsrs	r7, r7, #24
 80007e8:	0fc6      	lsrs	r6, r0, #31
 80007ea:	2f00      	cmp	r7, #0
 80007ec:	d100      	bne.n	80007f0 <__aeabi_fdiv+0x1c>
 80007ee:	e070      	b.n	80008d2 <__aeabi_fdiv+0xfe>
 80007f0:	2fff      	cmp	r7, #255	; 0xff
 80007f2:	d100      	bne.n	80007f6 <__aeabi_fdiv+0x22>
 80007f4:	e075      	b.n	80008e2 <__aeabi_fdiv+0x10e>
 80007f6:	00eb      	lsls	r3, r5, #3
 80007f8:	2580      	movs	r5, #128	; 0x80
 80007fa:	04ed      	lsls	r5, r5, #19
 80007fc:	431d      	orrs	r5, r3
 80007fe:	2300      	movs	r3, #0
 8000800:	4699      	mov	r9, r3
 8000802:	469a      	mov	sl, r3
 8000804:	3f7f      	subs	r7, #127	; 0x7f
 8000806:	0260      	lsls	r0, r4, #9
 8000808:	0a43      	lsrs	r3, r0, #9
 800080a:	4698      	mov	r8, r3
 800080c:	0063      	lsls	r3, r4, #1
 800080e:	0e1b      	lsrs	r3, r3, #24
 8000810:	0fe4      	lsrs	r4, r4, #31
 8000812:	2b00      	cmp	r3, #0
 8000814:	d04e      	beq.n	80008b4 <__aeabi_fdiv+0xe0>
 8000816:	2bff      	cmp	r3, #255	; 0xff
 8000818:	d046      	beq.n	80008a8 <__aeabi_fdiv+0xd4>
 800081a:	4642      	mov	r2, r8
 800081c:	00d0      	lsls	r0, r2, #3
 800081e:	2280      	movs	r2, #128	; 0x80
 8000820:	04d2      	lsls	r2, r2, #19
 8000822:	4302      	orrs	r2, r0
 8000824:	4690      	mov	r8, r2
 8000826:	2200      	movs	r2, #0
 8000828:	3b7f      	subs	r3, #127	; 0x7f
 800082a:	0031      	movs	r1, r6
 800082c:	1aff      	subs	r7, r7, r3
 800082e:	464b      	mov	r3, r9
 8000830:	4061      	eors	r1, r4
 8000832:	b2c9      	uxtb	r1, r1
 8000834:	4313      	orrs	r3, r2
 8000836:	2b0f      	cmp	r3, #15
 8000838:	d900      	bls.n	800083c <__aeabi_fdiv+0x68>
 800083a:	e0b5      	b.n	80009a8 <__aeabi_fdiv+0x1d4>
 800083c:	486e      	ldr	r0, [pc, #440]	; (80009f8 <__aeabi_fdiv+0x224>)
 800083e:	009b      	lsls	r3, r3, #2
 8000840:	58c3      	ldr	r3, [r0, r3]
 8000842:	469f      	mov	pc, r3
 8000844:	2300      	movs	r3, #0
 8000846:	4698      	mov	r8, r3
 8000848:	0026      	movs	r6, r4
 800084a:	4645      	mov	r5, r8
 800084c:	4692      	mov	sl, r2
 800084e:	4653      	mov	r3, sl
 8000850:	2b02      	cmp	r3, #2
 8000852:	d100      	bne.n	8000856 <__aeabi_fdiv+0x82>
 8000854:	e089      	b.n	800096a <__aeabi_fdiv+0x196>
 8000856:	2b03      	cmp	r3, #3
 8000858:	d100      	bne.n	800085c <__aeabi_fdiv+0x88>
 800085a:	e09e      	b.n	800099a <__aeabi_fdiv+0x1c6>
 800085c:	2b01      	cmp	r3, #1
 800085e:	d018      	beq.n	8000892 <__aeabi_fdiv+0xbe>
 8000860:	003b      	movs	r3, r7
 8000862:	337f      	adds	r3, #127	; 0x7f
 8000864:	2b00      	cmp	r3, #0
 8000866:	dd69      	ble.n	800093c <__aeabi_fdiv+0x168>
 8000868:	076a      	lsls	r2, r5, #29
 800086a:	d004      	beq.n	8000876 <__aeabi_fdiv+0xa2>
 800086c:	220f      	movs	r2, #15
 800086e:	402a      	ands	r2, r5
 8000870:	2a04      	cmp	r2, #4
 8000872:	d000      	beq.n	8000876 <__aeabi_fdiv+0xa2>
 8000874:	3504      	adds	r5, #4
 8000876:	012a      	lsls	r2, r5, #4
 8000878:	d503      	bpl.n	8000882 <__aeabi_fdiv+0xae>
 800087a:	4b60      	ldr	r3, [pc, #384]	; (80009fc <__aeabi_fdiv+0x228>)
 800087c:	401d      	ands	r5, r3
 800087e:	003b      	movs	r3, r7
 8000880:	3380      	adds	r3, #128	; 0x80
 8000882:	2bfe      	cmp	r3, #254	; 0xfe
 8000884:	dd00      	ble.n	8000888 <__aeabi_fdiv+0xb4>
 8000886:	e070      	b.n	800096a <__aeabi_fdiv+0x196>
 8000888:	01ad      	lsls	r5, r5, #6
 800088a:	0a6d      	lsrs	r5, r5, #9
 800088c:	b2d8      	uxtb	r0, r3
 800088e:	e002      	b.n	8000896 <__aeabi_fdiv+0xc2>
 8000890:	000e      	movs	r6, r1
 8000892:	2000      	movs	r0, #0
 8000894:	2500      	movs	r5, #0
 8000896:	05c0      	lsls	r0, r0, #23
 8000898:	4328      	orrs	r0, r5
 800089a:	07f6      	lsls	r6, r6, #31
 800089c:	4330      	orrs	r0, r6
 800089e:	bce0      	pop	{r5, r6, r7}
 80008a0:	46ba      	mov	sl, r7
 80008a2:	46b1      	mov	r9, r6
 80008a4:	46a8      	mov	r8, r5
 80008a6:	bdf0      	pop	{r4, r5, r6, r7, pc}
 80008a8:	4643      	mov	r3, r8
 80008aa:	2b00      	cmp	r3, #0
 80008ac:	d13f      	bne.n	800092e <__aeabi_fdiv+0x15a>
 80008ae:	2202      	movs	r2, #2
 80008b0:	3fff      	subs	r7, #255	; 0xff
 80008b2:	e003      	b.n	80008bc <__aeabi_fdiv+0xe8>
 80008b4:	4643      	mov	r3, r8
 80008b6:	2b00      	cmp	r3, #0
 80008b8:	d12d      	bne.n	8000916 <__aeabi_fdiv+0x142>
 80008ba:	2201      	movs	r2, #1
 80008bc:	0031      	movs	r1, r6
 80008be:	464b      	mov	r3, r9
 80008c0:	4061      	eors	r1, r4
 80008c2:	b2c9      	uxtb	r1, r1
 80008c4:	4313      	orrs	r3, r2
 80008c6:	2b0f      	cmp	r3, #15
 80008c8:	d834      	bhi.n	8000934 <__aeabi_fdiv+0x160>
 80008ca:	484d      	ldr	r0, [pc, #308]	; (8000a00 <__aeabi_fdiv+0x22c>)
 80008cc:	009b      	lsls	r3, r3, #2
 80008ce:	58c3      	ldr	r3, [r0, r3]
 80008d0:	469f      	mov	pc, r3
 80008d2:	2d00      	cmp	r5, #0
 80008d4:	d113      	bne.n	80008fe <__aeabi_fdiv+0x12a>
 80008d6:	2304      	movs	r3, #4
 80008d8:	4699      	mov	r9, r3
 80008da:	3b03      	subs	r3, #3
 80008dc:	2700      	movs	r7, #0
 80008de:	469a      	mov	sl, r3
 80008e0:	e791      	b.n	8000806 <__aeabi_fdiv+0x32>
 80008e2:	2d00      	cmp	r5, #0
 80008e4:	d105      	bne.n	80008f2 <__aeabi_fdiv+0x11e>
 80008e6:	2308      	movs	r3, #8
 80008e8:	4699      	mov	r9, r3
 80008ea:	3b06      	subs	r3, #6
 80008ec:	27ff      	movs	r7, #255	; 0xff
 80008ee:	469a      	mov	sl, r3
 80008f0:	e789      	b.n	8000806 <__aeabi_fdiv+0x32>
 80008f2:	230c      	movs	r3, #12
 80008f4:	4699      	mov	r9, r3
 80008f6:	3b09      	subs	r3, #9
 80008f8:	27ff      	movs	r7, #255	; 0xff
 80008fa:	469a      	mov	sl, r3
 80008fc:	e783      	b.n	8000806 <__aeabi_fdiv+0x32>
 80008fe:	0028      	movs	r0, r5
 8000900:	f000 fcb4 	bl	800126c <__clzsi2>
 8000904:	2776      	movs	r7, #118	; 0x76
 8000906:	1f43      	subs	r3, r0, #5
 8000908:	409d      	lsls	r5, r3
 800090a:	2300      	movs	r3, #0
 800090c:	427f      	negs	r7, r7
 800090e:	4699      	mov	r9, r3
 8000910:	469a      	mov	sl, r3
 8000912:	1a3f      	subs	r7, r7, r0
 8000914:	e777      	b.n	8000806 <__aeabi_fdiv+0x32>
 8000916:	4640      	mov	r0, r8
 8000918:	f000 fca8 	bl	800126c <__clzsi2>
 800091c:	4642      	mov	r2, r8
 800091e:	1f43      	subs	r3, r0, #5
 8000920:	409a      	lsls	r2, r3
 8000922:	2376      	movs	r3, #118	; 0x76
 8000924:	425b      	negs	r3, r3
 8000926:	4690      	mov	r8, r2
 8000928:	1a1b      	subs	r3, r3, r0
 800092a:	2200      	movs	r2, #0
 800092c:	e77d      	b.n	800082a <__aeabi_fdiv+0x56>
 800092e:	23ff      	movs	r3, #255	; 0xff
 8000930:	2203      	movs	r2, #3
 8000932:	e77a      	b.n	800082a <__aeabi_fdiv+0x56>
 8000934:	000e      	movs	r6, r1
 8000936:	20ff      	movs	r0, #255	; 0xff
 8000938:	2500      	movs	r5, #0
 800093a:	e7ac      	b.n	8000896 <__aeabi_fdiv+0xc2>
 800093c:	2001      	movs	r0, #1
 800093e:	1ac0      	subs	r0, r0, r3
 8000940:	281b      	cmp	r0, #27
 8000942:	dca6      	bgt.n	8000892 <__aeabi_fdiv+0xbe>
 8000944:	379e      	adds	r7, #158	; 0x9e
 8000946:	002a      	movs	r2, r5
 8000948:	40bd      	lsls	r5, r7
 800094a:	40c2      	lsrs	r2, r0
 800094c:	1e6b      	subs	r3, r5, #1
 800094e:	419d      	sbcs	r5, r3
 8000950:	4315      	orrs	r5, r2
 8000952:	076b      	lsls	r3, r5, #29
 8000954:	d004      	beq.n	8000960 <__aeabi_fdiv+0x18c>
 8000956:	230f      	movs	r3, #15
 8000958:	402b      	ands	r3, r5
 800095a:	2b04      	cmp	r3, #4
 800095c:	d000      	beq.n	8000960 <__aeabi_fdiv+0x18c>
 800095e:	3504      	adds	r5, #4
 8000960:	016b      	lsls	r3, r5, #5
 8000962:	d544      	bpl.n	80009ee <__aeabi_fdiv+0x21a>
 8000964:	2001      	movs	r0, #1
 8000966:	2500      	movs	r5, #0
 8000968:	e795      	b.n	8000896 <__aeabi_fdiv+0xc2>
 800096a:	20ff      	movs	r0, #255	; 0xff
 800096c:	2500      	movs	r5, #0
 800096e:	e792      	b.n	8000896 <__aeabi_fdiv+0xc2>
 8000970:	2580      	movs	r5, #128	; 0x80
 8000972:	2600      	movs	r6, #0
 8000974:	20ff      	movs	r0, #255	; 0xff
 8000976:	03ed      	lsls	r5, r5, #15
 8000978:	e78d      	b.n	8000896 <__aeabi_fdiv+0xc2>
 800097a:	2300      	movs	r3, #0
 800097c:	4698      	mov	r8, r3
 800097e:	2080      	movs	r0, #128	; 0x80
 8000980:	03c0      	lsls	r0, r0, #15
 8000982:	4205      	tst	r5, r0
 8000984:	d009      	beq.n	800099a <__aeabi_fdiv+0x1c6>
 8000986:	4643      	mov	r3, r8
 8000988:	4203      	tst	r3, r0
 800098a:	d106      	bne.n	800099a <__aeabi_fdiv+0x1c6>
 800098c:	4645      	mov	r5, r8
 800098e:	4305      	orrs	r5, r0
 8000990:	026d      	lsls	r5, r5, #9
 8000992:	0026      	movs	r6, r4
 8000994:	20ff      	movs	r0, #255	; 0xff
 8000996:	0a6d      	lsrs	r5, r5, #9
 8000998:	e77d      	b.n	8000896 <__aeabi_fdiv+0xc2>
 800099a:	2080      	movs	r0, #128	; 0x80
 800099c:	03c0      	lsls	r0, r0, #15
 800099e:	4305      	orrs	r5, r0
 80009a0:	026d      	lsls	r5, r5, #9
 80009a2:	20ff      	movs	r0, #255	; 0xff
 80009a4:	0a6d      	lsrs	r5, r5, #9
 80009a6:	e776      	b.n	8000896 <__aeabi_fdiv+0xc2>
 80009a8:	4642      	mov	r2, r8
 80009aa:	016b      	lsls	r3, r5, #5
 80009ac:	0150      	lsls	r0, r2, #5
 80009ae:	4283      	cmp	r3, r0
 80009b0:	d219      	bcs.n	80009e6 <__aeabi_fdiv+0x212>
 80009b2:	221b      	movs	r2, #27
 80009b4:	2500      	movs	r5, #0
 80009b6:	3f01      	subs	r7, #1
 80009b8:	2601      	movs	r6, #1
 80009ba:	001c      	movs	r4, r3
 80009bc:	006d      	lsls	r5, r5, #1
 80009be:	005b      	lsls	r3, r3, #1
 80009c0:	2c00      	cmp	r4, #0
 80009c2:	db01      	blt.n	80009c8 <__aeabi_fdiv+0x1f4>
 80009c4:	4298      	cmp	r0, r3
 80009c6:	d801      	bhi.n	80009cc <__aeabi_fdiv+0x1f8>
 80009c8:	1a1b      	subs	r3, r3, r0
 80009ca:	4335      	orrs	r5, r6
 80009cc:	3a01      	subs	r2, #1
 80009ce:	2a00      	cmp	r2, #0
 80009d0:	d1f3      	bne.n	80009ba <__aeabi_fdiv+0x1e6>
 80009d2:	1e5a      	subs	r2, r3, #1
 80009d4:	4193      	sbcs	r3, r2
 80009d6:	431d      	orrs	r5, r3
 80009d8:	003b      	movs	r3, r7
 80009da:	337f      	adds	r3, #127	; 0x7f
 80009dc:	000e      	movs	r6, r1
 80009de:	2b00      	cmp	r3, #0
 80009e0:	dd00      	ble.n	80009e4 <__aeabi_fdiv+0x210>
 80009e2:	e741      	b.n	8000868 <__aeabi_fdiv+0x94>
 80009e4:	e7aa      	b.n	800093c <__aeabi_fdiv+0x168>
 80009e6:	221a      	movs	r2, #26
 80009e8:	2501      	movs	r5, #1
 80009ea:	1a1b      	subs	r3, r3, r0
 80009ec:	e7e4      	b.n	80009b8 <__aeabi_fdiv+0x1e4>
 80009ee:	01ad      	lsls	r5, r5, #6
 80009f0:	2000      	movs	r0, #0
 80009f2:	0a6d      	lsrs	r5, r5, #9
 80009f4:	e74f      	b.n	8000896 <__aeabi_fdiv+0xc2>
 80009f6:	46c0      	nop			; (mov r8, r8)
 80009f8:	08003898 	.word	0x08003898
 80009fc:	f7ffffff 	.word	0xf7ffffff
 8000a00:	080038d8 	.word	0x080038d8

08000a04 <__eqsf2>:
 8000a04:	b570      	push	{r4, r5, r6, lr}
 8000a06:	0042      	lsls	r2, r0, #1
 8000a08:	0245      	lsls	r5, r0, #9
 8000a0a:	024e      	lsls	r6, r1, #9
 8000a0c:	004c      	lsls	r4, r1, #1
 8000a0e:	0fc3      	lsrs	r3, r0, #31
 8000a10:	0a6d      	lsrs	r5, r5, #9
 8000a12:	2001      	movs	r0, #1
 8000a14:	0e12      	lsrs	r2, r2, #24
 8000a16:	0a76      	lsrs	r6, r6, #9
 8000a18:	0e24      	lsrs	r4, r4, #24
 8000a1a:	0fc9      	lsrs	r1, r1, #31
 8000a1c:	2aff      	cmp	r2, #255	; 0xff
 8000a1e:	d006      	beq.n	8000a2e <__eqsf2+0x2a>
 8000a20:	2cff      	cmp	r4, #255	; 0xff
 8000a22:	d003      	beq.n	8000a2c <__eqsf2+0x28>
 8000a24:	42a2      	cmp	r2, r4
 8000a26:	d101      	bne.n	8000a2c <__eqsf2+0x28>
 8000a28:	42b5      	cmp	r5, r6
 8000a2a:	d006      	beq.n	8000a3a <__eqsf2+0x36>
 8000a2c:	bd70      	pop	{r4, r5, r6, pc}
 8000a2e:	2d00      	cmp	r5, #0
 8000a30:	d1fc      	bne.n	8000a2c <__eqsf2+0x28>
 8000a32:	2cff      	cmp	r4, #255	; 0xff
 8000a34:	d1fa      	bne.n	8000a2c <__eqsf2+0x28>
 8000a36:	2e00      	cmp	r6, #0
 8000a38:	d1f8      	bne.n	8000a2c <__eqsf2+0x28>
 8000a3a:	428b      	cmp	r3, r1
 8000a3c:	d006      	beq.n	8000a4c <__eqsf2+0x48>
 8000a3e:	2001      	movs	r0, #1
 8000a40:	2a00      	cmp	r2, #0
 8000a42:	d1f3      	bne.n	8000a2c <__eqsf2+0x28>
 8000a44:	0028      	movs	r0, r5
 8000a46:	1e43      	subs	r3, r0, #1
 8000a48:	4198      	sbcs	r0, r3
 8000a4a:	e7ef      	b.n	8000a2c <__eqsf2+0x28>
 8000a4c:	2000      	movs	r0, #0
 8000a4e:	e7ed      	b.n	8000a2c <__eqsf2+0x28>

08000a50 <__gesf2>:
 8000a50:	b570      	push	{r4, r5, r6, lr}
 8000a52:	0042      	lsls	r2, r0, #1
 8000a54:	0245      	lsls	r5, r0, #9
 8000a56:	024e      	lsls	r6, r1, #9
 8000a58:	004c      	lsls	r4, r1, #1
 8000a5a:	0fc3      	lsrs	r3, r0, #31
 8000a5c:	0a6d      	lsrs	r5, r5, #9
 8000a5e:	0e12      	lsrs	r2, r2, #24
 8000a60:	0a76      	lsrs	r6, r6, #9
 8000a62:	0e24      	lsrs	r4, r4, #24
 8000a64:	0fc8      	lsrs	r0, r1, #31
 8000a66:	2aff      	cmp	r2, #255	; 0xff
 8000a68:	d01b      	beq.n	8000aa2 <__gesf2+0x52>
 8000a6a:	2cff      	cmp	r4, #255	; 0xff
 8000a6c:	d00e      	beq.n	8000a8c <__gesf2+0x3c>
 8000a6e:	2a00      	cmp	r2, #0
 8000a70:	d11b      	bne.n	8000aaa <__gesf2+0x5a>
 8000a72:	2c00      	cmp	r4, #0
 8000a74:	d101      	bne.n	8000a7a <__gesf2+0x2a>
 8000a76:	2e00      	cmp	r6, #0
 8000a78:	d01c      	beq.n	8000ab4 <__gesf2+0x64>
 8000a7a:	2d00      	cmp	r5, #0
 8000a7c:	d00c      	beq.n	8000a98 <__gesf2+0x48>
 8000a7e:	4283      	cmp	r3, r0
 8000a80:	d01c      	beq.n	8000abc <__gesf2+0x6c>
 8000a82:	2102      	movs	r1, #2
 8000a84:	1e58      	subs	r0, r3, #1
 8000a86:	4008      	ands	r0, r1
 8000a88:	3801      	subs	r0, #1
 8000a8a:	bd70      	pop	{r4, r5, r6, pc}
 8000a8c:	2e00      	cmp	r6, #0
 8000a8e:	d122      	bne.n	8000ad6 <__gesf2+0x86>
 8000a90:	2a00      	cmp	r2, #0
 8000a92:	d1f4      	bne.n	8000a7e <__gesf2+0x2e>
 8000a94:	2d00      	cmp	r5, #0
 8000a96:	d1f2      	bne.n	8000a7e <__gesf2+0x2e>
 8000a98:	2800      	cmp	r0, #0
 8000a9a:	d1f6      	bne.n	8000a8a <__gesf2+0x3a>
 8000a9c:	2001      	movs	r0, #1
 8000a9e:	4240      	negs	r0, r0
 8000aa0:	e7f3      	b.n	8000a8a <__gesf2+0x3a>
 8000aa2:	2d00      	cmp	r5, #0
 8000aa4:	d117      	bne.n	8000ad6 <__gesf2+0x86>
 8000aa6:	2cff      	cmp	r4, #255	; 0xff
 8000aa8:	d0f0      	beq.n	8000a8c <__gesf2+0x3c>
 8000aaa:	2c00      	cmp	r4, #0
 8000aac:	d1e7      	bne.n	8000a7e <__gesf2+0x2e>
 8000aae:	2e00      	cmp	r6, #0
 8000ab0:	d1e5      	bne.n	8000a7e <__gesf2+0x2e>
 8000ab2:	e7e6      	b.n	8000a82 <__gesf2+0x32>
 8000ab4:	2000      	movs	r0, #0
 8000ab6:	2d00      	cmp	r5, #0
 8000ab8:	d0e7      	beq.n	8000a8a <__gesf2+0x3a>
 8000aba:	e7e2      	b.n	8000a82 <__gesf2+0x32>
 8000abc:	42a2      	cmp	r2, r4
 8000abe:	dc05      	bgt.n	8000acc <__gesf2+0x7c>
 8000ac0:	dbea      	blt.n	8000a98 <__gesf2+0x48>
 8000ac2:	42b5      	cmp	r5, r6
 8000ac4:	d802      	bhi.n	8000acc <__gesf2+0x7c>
 8000ac6:	d3e7      	bcc.n	8000a98 <__gesf2+0x48>
 8000ac8:	2000      	movs	r0, #0
 8000aca:	e7de      	b.n	8000a8a <__gesf2+0x3a>
 8000acc:	4243      	negs	r3, r0
 8000ace:	4158      	adcs	r0, r3
 8000ad0:	0040      	lsls	r0, r0, #1
 8000ad2:	3801      	subs	r0, #1
 8000ad4:	e7d9      	b.n	8000a8a <__gesf2+0x3a>
 8000ad6:	2002      	movs	r0, #2
 8000ad8:	4240      	negs	r0, r0
 8000ada:	e7d6      	b.n	8000a8a <__gesf2+0x3a>

08000adc <__lesf2>:
 8000adc:	b570      	push	{r4, r5, r6, lr}
 8000ade:	0042      	lsls	r2, r0, #1
 8000ae0:	0245      	lsls	r5, r0, #9
 8000ae2:	024e      	lsls	r6, r1, #9
 8000ae4:	004c      	lsls	r4, r1, #1
 8000ae6:	0fc3      	lsrs	r3, r0, #31
 8000ae8:	0a6d      	lsrs	r5, r5, #9
 8000aea:	0e12      	lsrs	r2, r2, #24
 8000aec:	0a76      	lsrs	r6, r6, #9
 8000aee:	0e24      	lsrs	r4, r4, #24
 8000af0:	0fc8      	lsrs	r0, r1, #31
 8000af2:	2aff      	cmp	r2, #255	; 0xff
 8000af4:	d00b      	beq.n	8000b0e <__lesf2+0x32>
 8000af6:	2cff      	cmp	r4, #255	; 0xff
 8000af8:	d00d      	beq.n	8000b16 <__lesf2+0x3a>
 8000afa:	2a00      	cmp	r2, #0
 8000afc:	d11f      	bne.n	8000b3e <__lesf2+0x62>
 8000afe:	2c00      	cmp	r4, #0
 8000b00:	d116      	bne.n	8000b30 <__lesf2+0x54>
 8000b02:	2e00      	cmp	r6, #0
 8000b04:	d114      	bne.n	8000b30 <__lesf2+0x54>
 8000b06:	2000      	movs	r0, #0
 8000b08:	2d00      	cmp	r5, #0
 8000b0a:	d010      	beq.n	8000b2e <__lesf2+0x52>
 8000b0c:	e009      	b.n	8000b22 <__lesf2+0x46>
 8000b0e:	2d00      	cmp	r5, #0
 8000b10:	d10c      	bne.n	8000b2c <__lesf2+0x50>
 8000b12:	2cff      	cmp	r4, #255	; 0xff
 8000b14:	d113      	bne.n	8000b3e <__lesf2+0x62>
 8000b16:	2e00      	cmp	r6, #0
 8000b18:	d108      	bne.n	8000b2c <__lesf2+0x50>
 8000b1a:	2a00      	cmp	r2, #0
 8000b1c:	d008      	beq.n	8000b30 <__lesf2+0x54>
 8000b1e:	4283      	cmp	r3, r0
 8000b20:	d012      	beq.n	8000b48 <__lesf2+0x6c>
 8000b22:	2102      	movs	r1, #2
 8000b24:	1e58      	subs	r0, r3, #1
 8000b26:	4008      	ands	r0, r1
 8000b28:	3801      	subs	r0, #1
 8000b2a:	e000      	b.n	8000b2e <__lesf2+0x52>
 8000b2c:	2002      	movs	r0, #2
 8000b2e:	bd70      	pop	{r4, r5, r6, pc}
 8000b30:	2d00      	cmp	r5, #0
 8000b32:	d1f4      	bne.n	8000b1e <__lesf2+0x42>
 8000b34:	2800      	cmp	r0, #0
 8000b36:	d1fa      	bne.n	8000b2e <__lesf2+0x52>
 8000b38:	2001      	movs	r0, #1
 8000b3a:	4240      	negs	r0, r0
 8000b3c:	e7f7      	b.n	8000b2e <__lesf2+0x52>
 8000b3e:	2c00      	cmp	r4, #0
 8000b40:	d1ed      	bne.n	8000b1e <__lesf2+0x42>
 8000b42:	2e00      	cmp	r6, #0
 8000b44:	d1eb      	bne.n	8000b1e <__lesf2+0x42>
 8000b46:	e7ec      	b.n	8000b22 <__lesf2+0x46>
 8000b48:	42a2      	cmp	r2, r4
 8000b4a:	dc05      	bgt.n	8000b58 <__lesf2+0x7c>
 8000b4c:	dbf2      	blt.n	8000b34 <__lesf2+0x58>
 8000b4e:	42b5      	cmp	r5, r6
 8000b50:	d802      	bhi.n	8000b58 <__lesf2+0x7c>
 8000b52:	d3ef      	bcc.n	8000b34 <__lesf2+0x58>
 8000b54:	2000      	movs	r0, #0
 8000b56:	e7ea      	b.n	8000b2e <__lesf2+0x52>
 8000b58:	4243      	negs	r3, r0
 8000b5a:	4158      	adcs	r0, r3
 8000b5c:	0040      	lsls	r0, r0, #1
 8000b5e:	3801      	subs	r0, #1
 8000b60:	e7e5      	b.n	8000b2e <__lesf2+0x52>
 8000b62:	46c0      	nop			; (mov r8, r8)

08000b64 <__aeabi_fmul>:
 8000b64:	b5f0      	push	{r4, r5, r6, r7, lr}
 8000b66:	464f      	mov	r7, r9
 8000b68:	4646      	mov	r6, r8
 8000b6a:	46d6      	mov	lr, sl
 8000b6c:	0244      	lsls	r4, r0, #9
 8000b6e:	0045      	lsls	r5, r0, #1
 8000b70:	b5c0      	push	{r6, r7, lr}
 8000b72:	0a64      	lsrs	r4, r4, #9
 8000b74:	1c0f      	adds	r7, r1, #0
 8000b76:	0e2d      	lsrs	r5, r5, #24
 8000b78:	0fc6      	lsrs	r6, r0, #31
 8000b7a:	2d00      	cmp	r5, #0
 8000b7c:	d100      	bne.n	8000b80 <__aeabi_fmul+0x1c>
 8000b7e:	e08d      	b.n	8000c9c <__aeabi_fmul+0x138>
 8000b80:	2dff      	cmp	r5, #255	; 0xff
 8000b82:	d100      	bne.n	8000b86 <__aeabi_fmul+0x22>
 8000b84:	e092      	b.n	8000cac <__aeabi_fmul+0x148>
 8000b86:	2300      	movs	r3, #0
 8000b88:	2080      	movs	r0, #128	; 0x80
 8000b8a:	4699      	mov	r9, r3
 8000b8c:	469a      	mov	sl, r3
 8000b8e:	00e4      	lsls	r4, r4, #3
 8000b90:	04c0      	lsls	r0, r0, #19
 8000b92:	4304      	orrs	r4, r0
 8000b94:	3d7f      	subs	r5, #127	; 0x7f
 8000b96:	0278      	lsls	r0, r7, #9
 8000b98:	0a43      	lsrs	r3, r0, #9
 8000b9a:	4698      	mov	r8, r3
 8000b9c:	007b      	lsls	r3, r7, #1
 8000b9e:	0e1b      	lsrs	r3, r3, #24
 8000ba0:	0fff      	lsrs	r7, r7, #31
 8000ba2:	2b00      	cmp	r3, #0
 8000ba4:	d100      	bne.n	8000ba8 <__aeabi_fmul+0x44>
 8000ba6:	e070      	b.n	8000c8a <__aeabi_fmul+0x126>
 8000ba8:	2bff      	cmp	r3, #255	; 0xff
 8000baa:	d100      	bne.n	8000bae <__aeabi_fmul+0x4a>
 8000bac:	e086      	b.n	8000cbc <__aeabi_fmul+0x158>
 8000bae:	4642      	mov	r2, r8
 8000bb0:	00d0      	lsls	r0, r2, #3
 8000bb2:	2280      	movs	r2, #128	; 0x80
 8000bb4:	3b7f      	subs	r3, #127	; 0x7f
 8000bb6:	18ed      	adds	r5, r5, r3
 8000bb8:	2300      	movs	r3, #0
 8000bba:	04d2      	lsls	r2, r2, #19
 8000bbc:	4302      	orrs	r2, r0
 8000bbe:	4690      	mov	r8, r2
 8000bc0:	469c      	mov	ip, r3
 8000bc2:	0031      	movs	r1, r6
 8000bc4:	464b      	mov	r3, r9
 8000bc6:	4079      	eors	r1, r7
 8000bc8:	1c68      	adds	r0, r5, #1
 8000bca:	2b0f      	cmp	r3, #15
 8000bcc:	d81c      	bhi.n	8000c08 <__aeabi_fmul+0xa4>
 8000bce:	4a76      	ldr	r2, [pc, #472]	; (8000da8 <__aeabi_fmul+0x244>)
 8000bd0:	009b      	lsls	r3, r3, #2
 8000bd2:	58d3      	ldr	r3, [r2, r3]
 8000bd4:	469f      	mov	pc, r3
 8000bd6:	0039      	movs	r1, r7
 8000bd8:	4644      	mov	r4, r8
 8000bda:	46e2      	mov	sl, ip
 8000bdc:	4653      	mov	r3, sl
 8000bde:	2b02      	cmp	r3, #2
 8000be0:	d00f      	beq.n	8000c02 <__aeabi_fmul+0x9e>
 8000be2:	2b03      	cmp	r3, #3
 8000be4:	d100      	bne.n	8000be8 <__aeabi_fmul+0x84>
 8000be6:	e0d7      	b.n	8000d98 <__aeabi_fmul+0x234>
 8000be8:	2b01      	cmp	r3, #1
 8000bea:	d137      	bne.n	8000c5c <__aeabi_fmul+0xf8>
 8000bec:	2000      	movs	r0, #0
 8000bee:	2400      	movs	r4, #0
 8000bf0:	05c0      	lsls	r0, r0, #23
 8000bf2:	4320      	orrs	r0, r4
 8000bf4:	07c9      	lsls	r1, r1, #31
 8000bf6:	4308      	orrs	r0, r1
 8000bf8:	bce0      	pop	{r5, r6, r7}
 8000bfa:	46ba      	mov	sl, r7
 8000bfc:	46b1      	mov	r9, r6
 8000bfe:	46a8      	mov	r8, r5
 8000c00:	bdf0      	pop	{r4, r5, r6, r7, pc}
 8000c02:	20ff      	movs	r0, #255	; 0xff
 8000c04:	2400      	movs	r4, #0
 8000c06:	e7f3      	b.n	8000bf0 <__aeabi_fmul+0x8c>
 8000c08:	0c26      	lsrs	r6, r4, #16
 8000c0a:	0424      	lsls	r4, r4, #16
 8000c0c:	0c22      	lsrs	r2, r4, #16
 8000c0e:	4644      	mov	r4, r8
 8000c10:	0424      	lsls	r4, r4, #16
 8000c12:	0c24      	lsrs	r4, r4, #16
 8000c14:	4643      	mov	r3, r8
 8000c16:	0027      	movs	r7, r4
 8000c18:	0c1b      	lsrs	r3, r3, #16
 8000c1a:	4357      	muls	r7, r2
 8000c1c:	4374      	muls	r4, r6
 8000c1e:	435a      	muls	r2, r3
 8000c20:	435e      	muls	r6, r3
 8000c22:	1912      	adds	r2, r2, r4
 8000c24:	0c3b      	lsrs	r3, r7, #16
 8000c26:	189b      	adds	r3, r3, r2
 8000c28:	429c      	cmp	r4, r3
 8000c2a:	d903      	bls.n	8000c34 <__aeabi_fmul+0xd0>
 8000c2c:	2280      	movs	r2, #128	; 0x80
 8000c2e:	0252      	lsls	r2, r2, #9
 8000c30:	4694      	mov	ip, r2
 8000c32:	4466      	add	r6, ip
 8000c34:	043f      	lsls	r7, r7, #16
 8000c36:	041a      	lsls	r2, r3, #16
 8000c38:	0c3f      	lsrs	r7, r7, #16
 8000c3a:	19d2      	adds	r2, r2, r7
 8000c3c:	0194      	lsls	r4, r2, #6
 8000c3e:	1e67      	subs	r7, r4, #1
 8000c40:	41bc      	sbcs	r4, r7
 8000c42:	0c1b      	lsrs	r3, r3, #16
 8000c44:	0e92      	lsrs	r2, r2, #26
 8000c46:	199b      	adds	r3, r3, r6
 8000c48:	4314      	orrs	r4, r2
 8000c4a:	019b      	lsls	r3, r3, #6
 8000c4c:	431c      	orrs	r4, r3
 8000c4e:	011b      	lsls	r3, r3, #4
 8000c50:	d400      	bmi.n	8000c54 <__aeabi_fmul+0xf0>
 8000c52:	e09b      	b.n	8000d8c <__aeabi_fmul+0x228>
 8000c54:	2301      	movs	r3, #1
 8000c56:	0862      	lsrs	r2, r4, #1
 8000c58:	401c      	ands	r4, r3
 8000c5a:	4314      	orrs	r4, r2
 8000c5c:	0002      	movs	r2, r0
 8000c5e:	327f      	adds	r2, #127	; 0x7f
 8000c60:	2a00      	cmp	r2, #0
 8000c62:	dd64      	ble.n	8000d2e <__aeabi_fmul+0x1ca>
 8000c64:	0763      	lsls	r3, r4, #29
 8000c66:	d004      	beq.n	8000c72 <__aeabi_fmul+0x10e>
 8000c68:	230f      	movs	r3, #15
 8000c6a:	4023      	ands	r3, r4
 8000c6c:	2b04      	cmp	r3, #4
 8000c6e:	d000      	beq.n	8000c72 <__aeabi_fmul+0x10e>
 8000c70:	3404      	adds	r4, #4
 8000c72:	0123      	lsls	r3, r4, #4
 8000c74:	d503      	bpl.n	8000c7e <__aeabi_fmul+0x11a>
 8000c76:	0002      	movs	r2, r0
 8000c78:	4b4c      	ldr	r3, [pc, #304]	; (8000dac <__aeabi_fmul+0x248>)
 8000c7a:	3280      	adds	r2, #128	; 0x80
 8000c7c:	401c      	ands	r4, r3
 8000c7e:	2afe      	cmp	r2, #254	; 0xfe
 8000c80:	dcbf      	bgt.n	8000c02 <__aeabi_fmul+0x9e>
 8000c82:	01a4      	lsls	r4, r4, #6
 8000c84:	0a64      	lsrs	r4, r4, #9
 8000c86:	b2d0      	uxtb	r0, r2
 8000c88:	e7b2      	b.n	8000bf0 <__aeabi_fmul+0x8c>
 8000c8a:	4643      	mov	r3, r8
 8000c8c:	2b00      	cmp	r3, #0
 8000c8e:	d13d      	bne.n	8000d0c <__aeabi_fmul+0x1a8>
 8000c90:	464a      	mov	r2, r9
 8000c92:	3301      	adds	r3, #1
 8000c94:	431a      	orrs	r2, r3
 8000c96:	4691      	mov	r9, r2
 8000c98:	469c      	mov	ip, r3
 8000c9a:	e792      	b.n	8000bc2 <__aeabi_fmul+0x5e>
 8000c9c:	2c00      	cmp	r4, #0
 8000c9e:	d129      	bne.n	8000cf4 <__aeabi_fmul+0x190>
 8000ca0:	2304      	movs	r3, #4
 8000ca2:	4699      	mov	r9, r3
 8000ca4:	3b03      	subs	r3, #3
 8000ca6:	2500      	movs	r5, #0
 8000ca8:	469a      	mov	sl, r3
 8000caa:	e774      	b.n	8000b96 <__aeabi_fmul+0x32>
 8000cac:	2c00      	cmp	r4, #0
 8000cae:	d11b      	bne.n	8000ce8 <__aeabi_fmul+0x184>
 8000cb0:	2308      	movs	r3, #8
 8000cb2:	4699      	mov	r9, r3
 8000cb4:	3b06      	subs	r3, #6
 8000cb6:	25ff      	movs	r5, #255	; 0xff
 8000cb8:	469a      	mov	sl, r3
 8000cba:	e76c      	b.n	8000b96 <__aeabi_fmul+0x32>
 8000cbc:	4643      	mov	r3, r8
 8000cbe:	35ff      	adds	r5, #255	; 0xff
 8000cc0:	2b00      	cmp	r3, #0
 8000cc2:	d10b      	bne.n	8000cdc <__aeabi_fmul+0x178>
 8000cc4:	2302      	movs	r3, #2
 8000cc6:	464a      	mov	r2, r9
 8000cc8:	431a      	orrs	r2, r3
 8000cca:	4691      	mov	r9, r2
 8000ccc:	469c      	mov	ip, r3
 8000cce:	e778      	b.n	8000bc2 <__aeabi_fmul+0x5e>
 8000cd0:	4653      	mov	r3, sl
 8000cd2:	0031      	movs	r1, r6
 8000cd4:	2b02      	cmp	r3, #2
 8000cd6:	d000      	beq.n	8000cda <__aeabi_fmul+0x176>
 8000cd8:	e783      	b.n	8000be2 <__aeabi_fmul+0x7e>
 8000cda:	e792      	b.n	8000c02 <__aeabi_fmul+0x9e>
 8000cdc:	2303      	movs	r3, #3
 8000cde:	464a      	mov	r2, r9
 8000ce0:	431a      	orrs	r2, r3
 8000ce2:	4691      	mov	r9, r2
 8000ce4:	469c      	mov	ip, r3
 8000ce6:	e76c      	b.n	8000bc2 <__aeabi_fmul+0x5e>
 8000ce8:	230c      	movs	r3, #12
 8000cea:	4699      	mov	r9, r3
 8000cec:	3b09      	subs	r3, #9
 8000cee:	25ff      	movs	r5, #255	; 0xff
 8000cf0:	469a      	mov	sl, r3
 8000cf2:	e750      	b.n	8000b96 <__aeabi_fmul+0x32>
 8000cf4:	0020      	movs	r0, r4
 8000cf6:	f000 fab9 	bl	800126c <__clzsi2>
 8000cfa:	2576      	movs	r5, #118	; 0x76
 8000cfc:	1f43      	subs	r3, r0, #5
 8000cfe:	409c      	lsls	r4, r3
 8000d00:	2300      	movs	r3, #0
 8000d02:	426d      	negs	r5, r5
 8000d04:	4699      	mov	r9, r3
 8000d06:	469a      	mov	sl, r3
 8000d08:	1a2d      	subs	r5, r5, r0
 8000d0a:	e744      	b.n	8000b96 <__aeabi_fmul+0x32>
 8000d0c:	4640      	mov	r0, r8
 8000d0e:	f000 faad 	bl	800126c <__clzsi2>
 8000d12:	4642      	mov	r2, r8
 8000d14:	1f43      	subs	r3, r0, #5
 8000d16:	409a      	lsls	r2, r3
 8000d18:	2300      	movs	r3, #0
 8000d1a:	1a2d      	subs	r5, r5, r0
 8000d1c:	4690      	mov	r8, r2
 8000d1e:	469c      	mov	ip, r3
 8000d20:	3d76      	subs	r5, #118	; 0x76
 8000d22:	e74e      	b.n	8000bc2 <__aeabi_fmul+0x5e>
 8000d24:	2480      	movs	r4, #128	; 0x80
 8000d26:	2100      	movs	r1, #0
 8000d28:	20ff      	movs	r0, #255	; 0xff
 8000d2a:	03e4      	lsls	r4, r4, #15
 8000d2c:	e760      	b.n	8000bf0 <__aeabi_fmul+0x8c>
 8000d2e:	2301      	movs	r3, #1
 8000d30:	1a9b      	subs	r3, r3, r2
 8000d32:	2b1b      	cmp	r3, #27
 8000d34:	dd00      	ble.n	8000d38 <__aeabi_fmul+0x1d4>
 8000d36:	e759      	b.n	8000bec <__aeabi_fmul+0x88>
 8000d38:	0022      	movs	r2, r4
 8000d3a:	309e      	adds	r0, #158	; 0x9e
 8000d3c:	40da      	lsrs	r2, r3
 8000d3e:	4084      	lsls	r4, r0
 8000d40:	0013      	movs	r3, r2
 8000d42:	1e62      	subs	r2, r4, #1
 8000d44:	4194      	sbcs	r4, r2
 8000d46:	431c      	orrs	r4, r3
 8000d48:	0763      	lsls	r3, r4, #29
 8000d4a:	d004      	beq.n	8000d56 <__aeabi_fmul+0x1f2>
 8000d4c:	230f      	movs	r3, #15
 8000d4e:	4023      	ands	r3, r4
 8000d50:	2b04      	cmp	r3, #4
 8000d52:	d000      	beq.n	8000d56 <__aeabi_fmul+0x1f2>
 8000d54:	3404      	adds	r4, #4
 8000d56:	0163      	lsls	r3, r4, #5
 8000d58:	d51a      	bpl.n	8000d90 <__aeabi_fmul+0x22c>
 8000d5a:	2001      	movs	r0, #1
 8000d5c:	2400      	movs	r4, #0
 8000d5e:	e747      	b.n	8000bf0 <__aeabi_fmul+0x8c>
 8000d60:	2080      	movs	r0, #128	; 0x80
 8000d62:	03c0      	lsls	r0, r0, #15
 8000d64:	4204      	tst	r4, r0
 8000d66:	d009      	beq.n	8000d7c <__aeabi_fmul+0x218>
 8000d68:	4643      	mov	r3, r8
 8000d6a:	4203      	tst	r3, r0
 8000d6c:	d106      	bne.n	8000d7c <__aeabi_fmul+0x218>
 8000d6e:	4644      	mov	r4, r8
 8000d70:	4304      	orrs	r4, r0
 8000d72:	0264      	lsls	r4, r4, #9
 8000d74:	0039      	movs	r1, r7
 8000d76:	20ff      	movs	r0, #255	; 0xff
 8000d78:	0a64      	lsrs	r4, r4, #9
 8000d7a:	e739      	b.n	8000bf0 <__aeabi_fmul+0x8c>
 8000d7c:	2080      	movs	r0, #128	; 0x80
 8000d7e:	03c0      	lsls	r0, r0, #15
 8000d80:	4304      	orrs	r4, r0
 8000d82:	0264      	lsls	r4, r4, #9
 8000d84:	0031      	movs	r1, r6
 8000d86:	20ff      	movs	r0, #255	; 0xff
 8000d88:	0a64      	lsrs	r4, r4, #9
 8000d8a:	e731      	b.n	8000bf0 <__aeabi_fmul+0x8c>
 8000d8c:	0028      	movs	r0, r5
 8000d8e:	e765      	b.n	8000c5c <__aeabi_fmul+0xf8>
 8000d90:	01a4      	lsls	r4, r4, #6
 8000d92:	2000      	movs	r0, #0
 8000d94:	0a64      	lsrs	r4, r4, #9
 8000d96:	e72b      	b.n	8000bf0 <__aeabi_fmul+0x8c>
 8000d98:	2080      	movs	r0, #128	; 0x80
 8000d9a:	03c0      	lsls	r0, r0, #15
 8000d9c:	4304      	orrs	r4, r0
 8000d9e:	0264      	lsls	r4, r4, #9
 8000da0:	20ff      	movs	r0, #255	; 0xff
 8000da2:	0a64      	lsrs	r4, r4, #9
 8000da4:	e724      	b.n	8000bf0 <__aeabi_fmul+0x8c>
 8000da6:	46c0      	nop			; (mov r8, r8)
 8000da8:	08003918 	.word	0x08003918
 8000dac:	f7ffffff 	.word	0xf7ffffff

08000db0 <__aeabi_fsub>:
 8000db0:	b5f8      	push	{r3, r4, r5, r6, r7, lr}
 8000db2:	46ce      	mov	lr, r9
 8000db4:	4647      	mov	r7, r8
 8000db6:	0243      	lsls	r3, r0, #9
 8000db8:	0a5b      	lsrs	r3, r3, #9
 8000dba:	024e      	lsls	r6, r1, #9
 8000dbc:	00da      	lsls	r2, r3, #3
 8000dbe:	4694      	mov	ip, r2
 8000dc0:	0a72      	lsrs	r2, r6, #9
 8000dc2:	4691      	mov	r9, r2
 8000dc4:	0045      	lsls	r5, r0, #1
 8000dc6:	004a      	lsls	r2, r1, #1
 8000dc8:	b580      	push	{r7, lr}
 8000dca:	0e2d      	lsrs	r5, r5, #24
 8000dcc:	001f      	movs	r7, r3
 8000dce:	0fc4      	lsrs	r4, r0, #31
 8000dd0:	0e12      	lsrs	r2, r2, #24
 8000dd2:	0fc9      	lsrs	r1, r1, #31
 8000dd4:	09b6      	lsrs	r6, r6, #6
 8000dd6:	2aff      	cmp	r2, #255	; 0xff
 8000dd8:	d05b      	beq.n	8000e92 <__aeabi_fsub+0xe2>
 8000dda:	2001      	movs	r0, #1
 8000ddc:	4041      	eors	r1, r0
 8000dde:	428c      	cmp	r4, r1
 8000de0:	d039      	beq.n	8000e56 <__aeabi_fsub+0xa6>
 8000de2:	1aa8      	subs	r0, r5, r2
 8000de4:	2800      	cmp	r0, #0
 8000de6:	dd5a      	ble.n	8000e9e <__aeabi_fsub+0xee>
 8000de8:	2a00      	cmp	r2, #0
 8000dea:	d06a      	beq.n	8000ec2 <__aeabi_fsub+0x112>
 8000dec:	2dff      	cmp	r5, #255	; 0xff
 8000dee:	d100      	bne.n	8000df2 <__aeabi_fsub+0x42>
 8000df0:	e0d9      	b.n	8000fa6 <__aeabi_fsub+0x1f6>
 8000df2:	2280      	movs	r2, #128	; 0x80
 8000df4:	04d2      	lsls	r2, r2, #19
 8000df6:	4316      	orrs	r6, r2
 8000df8:	281b      	cmp	r0, #27
 8000dfa:	dc00      	bgt.n	8000dfe <__aeabi_fsub+0x4e>
 8000dfc:	e0e9      	b.n	8000fd2 <__aeabi_fsub+0x222>
 8000dfe:	2001      	movs	r0, #1
 8000e00:	4663      	mov	r3, ip
 8000e02:	1a18      	subs	r0, r3, r0
 8000e04:	0143      	lsls	r3, r0, #5
 8000e06:	d400      	bmi.n	8000e0a <__aeabi_fsub+0x5a>
 8000e08:	e0b4      	b.n	8000f74 <__aeabi_fsub+0x1c4>
 8000e0a:	0180      	lsls	r0, r0, #6
 8000e0c:	0987      	lsrs	r7, r0, #6
 8000e0e:	0038      	movs	r0, r7
 8000e10:	f000 fa2c 	bl	800126c <__clzsi2>
 8000e14:	3805      	subs	r0, #5
 8000e16:	4087      	lsls	r7, r0
 8000e18:	4285      	cmp	r5, r0
 8000e1a:	dc00      	bgt.n	8000e1e <__aeabi_fsub+0x6e>
 8000e1c:	e0cc      	b.n	8000fb8 <__aeabi_fsub+0x208>
 8000e1e:	1a2d      	subs	r5, r5, r0
 8000e20:	48b5      	ldr	r0, [pc, #724]	; (80010f8 <__aeabi_fsub+0x348>)
 8000e22:	4038      	ands	r0, r7
 8000e24:	0743      	lsls	r3, r0, #29
 8000e26:	d004      	beq.n	8000e32 <__aeabi_fsub+0x82>
 8000e28:	230f      	movs	r3, #15
 8000e2a:	4003      	ands	r3, r0
 8000e2c:	2b04      	cmp	r3, #4
 8000e2e:	d000      	beq.n	8000e32 <__aeabi_fsub+0x82>
 8000e30:	3004      	adds	r0, #4
 8000e32:	0143      	lsls	r3, r0, #5
 8000e34:	d400      	bmi.n	8000e38 <__aeabi_fsub+0x88>
 8000e36:	e0a0      	b.n	8000f7a <__aeabi_fsub+0x1ca>
 8000e38:	1c6a      	adds	r2, r5, #1
 8000e3a:	2dfe      	cmp	r5, #254	; 0xfe
 8000e3c:	d100      	bne.n	8000e40 <__aeabi_fsub+0x90>
 8000e3e:	e08d      	b.n	8000f5c <__aeabi_fsub+0x1ac>
 8000e40:	0180      	lsls	r0, r0, #6
 8000e42:	0a47      	lsrs	r7, r0, #9
 8000e44:	b2d2      	uxtb	r2, r2
 8000e46:	05d0      	lsls	r0, r2, #23
 8000e48:	4338      	orrs	r0, r7
 8000e4a:	07e4      	lsls	r4, r4, #31
 8000e4c:	4320      	orrs	r0, r4
 8000e4e:	bcc0      	pop	{r6, r7}
 8000e50:	46b9      	mov	r9, r7
 8000e52:	46b0      	mov	r8, r6
 8000e54:	bdf8      	pop	{r3, r4, r5, r6, r7, pc}
 8000e56:	1aa8      	subs	r0, r5, r2
 8000e58:	4680      	mov	r8, r0
 8000e5a:	2800      	cmp	r0, #0
 8000e5c:	dd45      	ble.n	8000eea <__aeabi_fsub+0x13a>
 8000e5e:	2a00      	cmp	r2, #0
 8000e60:	d070      	beq.n	8000f44 <__aeabi_fsub+0x194>
 8000e62:	2dff      	cmp	r5, #255	; 0xff
 8000e64:	d100      	bne.n	8000e68 <__aeabi_fsub+0xb8>
 8000e66:	e09e      	b.n	8000fa6 <__aeabi_fsub+0x1f6>
 8000e68:	2380      	movs	r3, #128	; 0x80
 8000e6a:	04db      	lsls	r3, r3, #19
 8000e6c:	431e      	orrs	r6, r3
 8000e6e:	4643      	mov	r3, r8
 8000e70:	2b1b      	cmp	r3, #27
 8000e72:	dc00      	bgt.n	8000e76 <__aeabi_fsub+0xc6>
 8000e74:	e0d2      	b.n	800101c <__aeabi_fsub+0x26c>
 8000e76:	2001      	movs	r0, #1
 8000e78:	4460      	add	r0, ip
 8000e7a:	0143      	lsls	r3, r0, #5
 8000e7c:	d57a      	bpl.n	8000f74 <__aeabi_fsub+0x1c4>
 8000e7e:	3501      	adds	r5, #1
 8000e80:	2dff      	cmp	r5, #255	; 0xff
 8000e82:	d06b      	beq.n	8000f5c <__aeabi_fsub+0x1ac>
 8000e84:	2301      	movs	r3, #1
 8000e86:	4a9d      	ldr	r2, [pc, #628]	; (80010fc <__aeabi_fsub+0x34c>)
 8000e88:	4003      	ands	r3, r0
 8000e8a:	0840      	lsrs	r0, r0, #1
 8000e8c:	4010      	ands	r0, r2
 8000e8e:	4318      	orrs	r0, r3
 8000e90:	e7c8      	b.n	8000e24 <__aeabi_fsub+0x74>
 8000e92:	2e00      	cmp	r6, #0
 8000e94:	d020      	beq.n	8000ed8 <__aeabi_fsub+0x128>
 8000e96:	428c      	cmp	r4, r1
 8000e98:	d023      	beq.n	8000ee2 <__aeabi_fsub+0x132>
 8000e9a:	0028      	movs	r0, r5
 8000e9c:	38ff      	subs	r0, #255	; 0xff
 8000e9e:	2800      	cmp	r0, #0
 8000ea0:	d039      	beq.n	8000f16 <__aeabi_fsub+0x166>
 8000ea2:	1b57      	subs	r7, r2, r5
 8000ea4:	2d00      	cmp	r5, #0
 8000ea6:	d000      	beq.n	8000eaa <__aeabi_fsub+0xfa>
 8000ea8:	e09d      	b.n	8000fe6 <__aeabi_fsub+0x236>
 8000eaa:	4663      	mov	r3, ip
 8000eac:	2b00      	cmp	r3, #0
 8000eae:	d100      	bne.n	8000eb2 <__aeabi_fsub+0x102>
 8000eb0:	e0db      	b.n	800106a <__aeabi_fsub+0x2ba>
 8000eb2:	1e7b      	subs	r3, r7, #1
 8000eb4:	2f01      	cmp	r7, #1
 8000eb6:	d100      	bne.n	8000eba <__aeabi_fsub+0x10a>
 8000eb8:	e10d      	b.n	80010d6 <__aeabi_fsub+0x326>
 8000eba:	2fff      	cmp	r7, #255	; 0xff
 8000ebc:	d071      	beq.n	8000fa2 <__aeabi_fsub+0x1f2>
 8000ebe:	001f      	movs	r7, r3
 8000ec0:	e098      	b.n	8000ff4 <__aeabi_fsub+0x244>
 8000ec2:	2e00      	cmp	r6, #0
 8000ec4:	d100      	bne.n	8000ec8 <__aeabi_fsub+0x118>
 8000ec6:	e0a7      	b.n	8001018 <__aeabi_fsub+0x268>
 8000ec8:	1e42      	subs	r2, r0, #1
 8000eca:	2801      	cmp	r0, #1
 8000ecc:	d100      	bne.n	8000ed0 <__aeabi_fsub+0x120>
 8000ece:	e0e6      	b.n	800109e <__aeabi_fsub+0x2ee>
 8000ed0:	28ff      	cmp	r0, #255	; 0xff
 8000ed2:	d068      	beq.n	8000fa6 <__aeabi_fsub+0x1f6>
 8000ed4:	0010      	movs	r0, r2
 8000ed6:	e78f      	b.n	8000df8 <__aeabi_fsub+0x48>
 8000ed8:	2001      	movs	r0, #1
 8000eda:	4041      	eors	r1, r0
 8000edc:	42a1      	cmp	r1, r4
 8000ede:	d000      	beq.n	8000ee2 <__aeabi_fsub+0x132>
 8000ee0:	e77f      	b.n	8000de2 <__aeabi_fsub+0x32>
 8000ee2:	20ff      	movs	r0, #255	; 0xff
 8000ee4:	4240      	negs	r0, r0
 8000ee6:	4680      	mov	r8, r0
 8000ee8:	44a8      	add	r8, r5
 8000eea:	4640      	mov	r0, r8
 8000eec:	2800      	cmp	r0, #0
 8000eee:	d038      	beq.n	8000f62 <__aeabi_fsub+0x1b2>
 8000ef0:	1b51      	subs	r1, r2, r5
 8000ef2:	2d00      	cmp	r5, #0
 8000ef4:	d100      	bne.n	8000ef8 <__aeabi_fsub+0x148>
 8000ef6:	e0ae      	b.n	8001056 <__aeabi_fsub+0x2a6>
 8000ef8:	2aff      	cmp	r2, #255	; 0xff
 8000efa:	d100      	bne.n	8000efe <__aeabi_fsub+0x14e>
 8000efc:	e0df      	b.n	80010be <__aeabi_fsub+0x30e>
 8000efe:	2380      	movs	r3, #128	; 0x80
 8000f00:	4660      	mov	r0, ip
 8000f02:	04db      	lsls	r3, r3, #19
 8000f04:	4318      	orrs	r0, r3
 8000f06:	4684      	mov	ip, r0
 8000f08:	291b      	cmp	r1, #27
 8000f0a:	dc00      	bgt.n	8000f0e <__aeabi_fsub+0x15e>
 8000f0c:	e0d9      	b.n	80010c2 <__aeabi_fsub+0x312>
 8000f0e:	2001      	movs	r0, #1
 8000f10:	0015      	movs	r5, r2
 8000f12:	1980      	adds	r0, r0, r6
 8000f14:	e7b1      	b.n	8000e7a <__aeabi_fsub+0xca>
 8000f16:	20fe      	movs	r0, #254	; 0xfe
 8000f18:	1c6a      	adds	r2, r5, #1
 8000f1a:	4210      	tst	r0, r2
 8000f1c:	d171      	bne.n	8001002 <__aeabi_fsub+0x252>
 8000f1e:	2d00      	cmp	r5, #0
 8000f20:	d000      	beq.n	8000f24 <__aeabi_fsub+0x174>
 8000f22:	e0a6      	b.n	8001072 <__aeabi_fsub+0x2c2>
 8000f24:	4663      	mov	r3, ip
 8000f26:	2b00      	cmp	r3, #0
 8000f28:	d100      	bne.n	8000f2c <__aeabi_fsub+0x17c>
 8000f2a:	e0d9      	b.n	80010e0 <__aeabi_fsub+0x330>
 8000f2c:	2200      	movs	r2, #0
 8000f2e:	2e00      	cmp	r6, #0
 8000f30:	d100      	bne.n	8000f34 <__aeabi_fsub+0x184>
 8000f32:	e788      	b.n	8000e46 <__aeabi_fsub+0x96>
 8000f34:	1b98      	subs	r0, r3, r6
 8000f36:	0143      	lsls	r3, r0, #5
 8000f38:	d400      	bmi.n	8000f3c <__aeabi_fsub+0x18c>
 8000f3a:	e0e1      	b.n	8001100 <__aeabi_fsub+0x350>
 8000f3c:	4663      	mov	r3, ip
 8000f3e:	000c      	movs	r4, r1
 8000f40:	1af0      	subs	r0, r6, r3
 8000f42:	e76f      	b.n	8000e24 <__aeabi_fsub+0x74>
 8000f44:	2e00      	cmp	r6, #0
 8000f46:	d100      	bne.n	8000f4a <__aeabi_fsub+0x19a>
 8000f48:	e0b7      	b.n	80010ba <__aeabi_fsub+0x30a>
 8000f4a:	0002      	movs	r2, r0
 8000f4c:	3a01      	subs	r2, #1
 8000f4e:	2801      	cmp	r0, #1
 8000f50:	d100      	bne.n	8000f54 <__aeabi_fsub+0x1a4>
 8000f52:	e09c      	b.n	800108e <__aeabi_fsub+0x2de>
 8000f54:	28ff      	cmp	r0, #255	; 0xff
 8000f56:	d026      	beq.n	8000fa6 <__aeabi_fsub+0x1f6>
 8000f58:	4690      	mov	r8, r2
 8000f5a:	e788      	b.n	8000e6e <__aeabi_fsub+0xbe>
 8000f5c:	22ff      	movs	r2, #255	; 0xff
 8000f5e:	2700      	movs	r7, #0
 8000f60:	e771      	b.n	8000e46 <__aeabi_fsub+0x96>
 8000f62:	20fe      	movs	r0, #254	; 0xfe
 8000f64:	1c6a      	adds	r2, r5, #1
 8000f66:	4210      	tst	r0, r2
 8000f68:	d064      	beq.n	8001034 <__aeabi_fsub+0x284>
 8000f6a:	2aff      	cmp	r2, #255	; 0xff
 8000f6c:	d0f6      	beq.n	8000f5c <__aeabi_fsub+0x1ac>
 8000f6e:	0015      	movs	r5, r2
 8000f70:	4466      	add	r6, ip
 8000f72:	0870      	lsrs	r0, r6, #1
 8000f74:	0743      	lsls	r3, r0, #29
 8000f76:	d000      	beq.n	8000f7a <__aeabi_fsub+0x1ca>
 8000f78:	e756      	b.n	8000e28 <__aeabi_fsub+0x78>
 8000f7a:	08c3      	lsrs	r3, r0, #3
 8000f7c:	2dff      	cmp	r5, #255	; 0xff
 8000f7e:	d012      	beq.n	8000fa6 <__aeabi_fsub+0x1f6>
 8000f80:	025b      	lsls	r3, r3, #9
 8000f82:	0a5f      	lsrs	r7, r3, #9
 8000f84:	b2ea      	uxtb	r2, r5
 8000f86:	e75e      	b.n	8000e46 <__aeabi_fsub+0x96>
 8000f88:	4662      	mov	r2, ip
 8000f8a:	2a00      	cmp	r2, #0
 8000f8c:	d100      	bne.n	8000f90 <__aeabi_fsub+0x1e0>
 8000f8e:	e096      	b.n	80010be <__aeabi_fsub+0x30e>
 8000f90:	2e00      	cmp	r6, #0
 8000f92:	d008      	beq.n	8000fa6 <__aeabi_fsub+0x1f6>
 8000f94:	2280      	movs	r2, #128	; 0x80
 8000f96:	03d2      	lsls	r2, r2, #15
 8000f98:	4213      	tst	r3, r2
 8000f9a:	d004      	beq.n	8000fa6 <__aeabi_fsub+0x1f6>
 8000f9c:	4648      	mov	r0, r9
 8000f9e:	4210      	tst	r0, r2
 8000fa0:	d101      	bne.n	8000fa6 <__aeabi_fsub+0x1f6>
 8000fa2:	000c      	movs	r4, r1
 8000fa4:	464b      	mov	r3, r9
 8000fa6:	2b00      	cmp	r3, #0
 8000fa8:	d0d8      	beq.n	8000f5c <__aeabi_fsub+0x1ac>
 8000faa:	2780      	movs	r7, #128	; 0x80
 8000fac:	03ff      	lsls	r7, r7, #15
 8000fae:	431f      	orrs	r7, r3
 8000fb0:	027f      	lsls	r7, r7, #9
 8000fb2:	22ff      	movs	r2, #255	; 0xff
 8000fb4:	0a7f      	lsrs	r7, r7, #9
 8000fb6:	e746      	b.n	8000e46 <__aeabi_fsub+0x96>
 8000fb8:	2320      	movs	r3, #32
 8000fba:	003a      	movs	r2, r7
 8000fbc:	1b45      	subs	r5, r0, r5
 8000fbe:	0038      	movs	r0, r7
 8000fc0:	3501      	adds	r5, #1
 8000fc2:	40ea      	lsrs	r2, r5
 8000fc4:	1b5d      	subs	r5, r3, r5
 8000fc6:	40a8      	lsls	r0, r5
 8000fc8:	1e43      	subs	r3, r0, #1
 8000fca:	4198      	sbcs	r0, r3
 8000fcc:	2500      	movs	r5, #0
 8000fce:	4310      	orrs	r0, r2
 8000fd0:	e728      	b.n	8000e24 <__aeabi_fsub+0x74>
 8000fd2:	2320      	movs	r3, #32
 8000fd4:	1a1b      	subs	r3, r3, r0
 8000fd6:	0032      	movs	r2, r6
 8000fd8:	409e      	lsls	r6, r3
 8000fda:	40c2      	lsrs	r2, r0
 8000fdc:	0030      	movs	r0, r6
 8000fde:	1e43      	subs	r3, r0, #1
 8000fe0:	4198      	sbcs	r0, r3
 8000fe2:	4310      	orrs	r0, r2
 8000fe4:	e70c      	b.n	8000e00 <__aeabi_fsub+0x50>
 8000fe6:	2aff      	cmp	r2, #255	; 0xff
 8000fe8:	d0db      	beq.n	8000fa2 <__aeabi_fsub+0x1f2>
 8000fea:	2380      	movs	r3, #128	; 0x80
 8000fec:	4660      	mov	r0, ip
 8000fee:	04db      	lsls	r3, r3, #19
 8000ff0:	4318      	orrs	r0, r3
 8000ff2:	4684      	mov	ip, r0
 8000ff4:	2f1b      	cmp	r7, #27
 8000ff6:	dd56      	ble.n	80010a6 <__aeabi_fsub+0x2f6>
 8000ff8:	2001      	movs	r0, #1
 8000ffa:	000c      	movs	r4, r1
 8000ffc:	0015      	movs	r5, r2
 8000ffe:	1a30      	subs	r0, r6, r0
 8001000:	e700      	b.n	8000e04 <__aeabi_fsub+0x54>
 8001002:	4663      	mov	r3, ip
 8001004:	1b9f      	subs	r7, r3, r6
 8001006:	017b      	lsls	r3, r7, #5
 8001008:	d43d      	bmi.n	8001086 <__aeabi_fsub+0x2d6>
 800100a:	2f00      	cmp	r7, #0
 800100c:	d000      	beq.n	8001010 <__aeabi_fsub+0x260>
 800100e:	e6fe      	b.n	8000e0e <__aeabi_fsub+0x5e>
 8001010:	2400      	movs	r4, #0
 8001012:	2200      	movs	r2, #0
 8001014:	2700      	movs	r7, #0
 8001016:	e716      	b.n	8000e46 <__aeabi_fsub+0x96>
 8001018:	0005      	movs	r5, r0
 800101a:	e7af      	b.n	8000f7c <__aeabi_fsub+0x1cc>
 800101c:	0032      	movs	r2, r6
 800101e:	4643      	mov	r3, r8
 8001020:	4641      	mov	r1, r8
 8001022:	40da      	lsrs	r2, r3
 8001024:	2320      	movs	r3, #32
 8001026:	1a5b      	subs	r3, r3, r1
 8001028:	409e      	lsls	r6, r3
 800102a:	0030      	movs	r0, r6
 800102c:	1e43      	subs	r3, r0, #1
 800102e:	4198      	sbcs	r0, r3
 8001030:	4310      	orrs	r0, r2
 8001032:	e721      	b.n	8000e78 <__aeabi_fsub+0xc8>
 8001034:	2d00      	cmp	r5, #0
 8001036:	d1a7      	bne.n	8000f88 <__aeabi_fsub+0x1d8>
 8001038:	4663      	mov	r3, ip
 800103a:	2b00      	cmp	r3, #0
 800103c:	d059      	beq.n	80010f2 <__aeabi_fsub+0x342>
 800103e:	2200      	movs	r2, #0
 8001040:	2e00      	cmp	r6, #0
 8001042:	d100      	bne.n	8001046 <__aeabi_fsub+0x296>
 8001044:	e6ff      	b.n	8000e46 <__aeabi_fsub+0x96>
 8001046:	0030      	movs	r0, r6
 8001048:	4460      	add	r0, ip
 800104a:	0143      	lsls	r3, r0, #5
 800104c:	d592      	bpl.n	8000f74 <__aeabi_fsub+0x1c4>
 800104e:	4b2a      	ldr	r3, [pc, #168]	; (80010f8 <__aeabi_fsub+0x348>)
 8001050:	3501      	adds	r5, #1
 8001052:	4018      	ands	r0, r3
 8001054:	e78e      	b.n	8000f74 <__aeabi_fsub+0x1c4>
 8001056:	4663      	mov	r3, ip
 8001058:	2b00      	cmp	r3, #0
 800105a:	d047      	beq.n	80010ec <__aeabi_fsub+0x33c>
 800105c:	1e4b      	subs	r3, r1, #1
 800105e:	2901      	cmp	r1, #1
 8001060:	d015      	beq.n	800108e <__aeabi_fsub+0x2de>
 8001062:	29ff      	cmp	r1, #255	; 0xff
 8001064:	d02b      	beq.n	80010be <__aeabi_fsub+0x30e>
 8001066:	0019      	movs	r1, r3
 8001068:	e74e      	b.n	8000f08 <__aeabi_fsub+0x158>
 800106a:	000c      	movs	r4, r1
 800106c:	464b      	mov	r3, r9
 800106e:	003d      	movs	r5, r7
 8001070:	e784      	b.n	8000f7c <__aeabi_fsub+0x1cc>
 8001072:	4662      	mov	r2, ip
 8001074:	2a00      	cmp	r2, #0
 8001076:	d18b      	bne.n	8000f90 <__aeabi_fsub+0x1e0>
 8001078:	2e00      	cmp	r6, #0
 800107a:	d192      	bne.n	8000fa2 <__aeabi_fsub+0x1f2>
 800107c:	2780      	movs	r7, #128	; 0x80
 800107e:	2400      	movs	r4, #0
 8001080:	22ff      	movs	r2, #255	; 0xff
 8001082:	03ff      	lsls	r7, r7, #15
 8001084:	e6df      	b.n	8000e46 <__aeabi_fsub+0x96>
 8001086:	4663      	mov	r3, ip
 8001088:	000c      	movs	r4, r1
 800108a:	1af7      	subs	r7, r6, r3
 800108c:	e6bf      	b.n	8000e0e <__aeabi_fsub+0x5e>
 800108e:	0030      	movs	r0, r6
 8001090:	4460      	add	r0, ip
 8001092:	2501      	movs	r5, #1
 8001094:	0143      	lsls	r3, r0, #5
 8001096:	d400      	bmi.n	800109a <__aeabi_fsub+0x2ea>
 8001098:	e76c      	b.n	8000f74 <__aeabi_fsub+0x1c4>
 800109a:	2502      	movs	r5, #2
 800109c:	e6f2      	b.n	8000e84 <__aeabi_fsub+0xd4>
 800109e:	4663      	mov	r3, ip
 80010a0:	2501      	movs	r5, #1
 80010a2:	1b98      	subs	r0, r3, r6
 80010a4:	e6ae      	b.n	8000e04 <__aeabi_fsub+0x54>
 80010a6:	2320      	movs	r3, #32
 80010a8:	4664      	mov	r4, ip
 80010aa:	4660      	mov	r0, ip
 80010ac:	40fc      	lsrs	r4, r7
 80010ae:	1bdf      	subs	r7, r3, r7
 80010b0:	40b8      	lsls	r0, r7
 80010b2:	1e43      	subs	r3, r0, #1
 80010b4:	4198      	sbcs	r0, r3
 80010b6:	4320      	orrs	r0, r4
 80010b8:	e79f      	b.n	8000ffa <__aeabi_fsub+0x24a>
 80010ba:	0005      	movs	r5, r0
 80010bc:	e75e      	b.n	8000f7c <__aeabi_fsub+0x1cc>
 80010be:	464b      	mov	r3, r9
 80010c0:	e771      	b.n	8000fa6 <__aeabi_fsub+0x1f6>
 80010c2:	2320      	movs	r3, #32
 80010c4:	4665      	mov	r5, ip
 80010c6:	4660      	mov	r0, ip
 80010c8:	40cd      	lsrs	r5, r1
 80010ca:	1a59      	subs	r1, r3, r1
 80010cc:	4088      	lsls	r0, r1
 80010ce:	1e43      	subs	r3, r0, #1
 80010d0:	4198      	sbcs	r0, r3
 80010d2:	4328      	orrs	r0, r5
 80010d4:	e71c      	b.n	8000f10 <__aeabi_fsub+0x160>
 80010d6:	4663      	mov	r3, ip
 80010d8:	000c      	movs	r4, r1
 80010da:	2501      	movs	r5, #1
 80010dc:	1af0      	subs	r0, r6, r3
 80010de:	e691      	b.n	8000e04 <__aeabi_fsub+0x54>
 80010e0:	2e00      	cmp	r6, #0
 80010e2:	d095      	beq.n	8001010 <__aeabi_fsub+0x260>
 80010e4:	000c      	movs	r4, r1
 80010e6:	464f      	mov	r7, r9
 80010e8:	2200      	movs	r2, #0
 80010ea:	e6ac      	b.n	8000e46 <__aeabi_fsub+0x96>
 80010ec:	464b      	mov	r3, r9
 80010ee:	000d      	movs	r5, r1
 80010f0:	e744      	b.n	8000f7c <__aeabi_fsub+0x1cc>
 80010f2:	464f      	mov	r7, r9
 80010f4:	2200      	movs	r2, #0
 80010f6:	e6a6      	b.n	8000e46 <__aeabi_fsub+0x96>
 80010f8:	fbffffff 	.word	0xfbffffff
 80010fc:	7dffffff 	.word	0x7dffffff
 8001100:	2800      	cmp	r0, #0
 8001102:	d000      	beq.n	8001106 <__aeabi_fsub+0x356>
 8001104:	e736      	b.n	8000f74 <__aeabi_fsub+0x1c4>
 8001106:	2400      	movs	r4, #0
 8001108:	2700      	movs	r7, #0
 800110a:	e69c      	b.n	8000e46 <__aeabi_fsub+0x96>

0800110c <__aeabi_f2iz>:
 800110c:	0241      	lsls	r1, r0, #9
 800110e:	0042      	lsls	r2, r0, #1
 8001110:	0fc3      	lsrs	r3, r0, #31
 8001112:	0a49      	lsrs	r1, r1, #9
 8001114:	2000      	movs	r0, #0
 8001116:	0e12      	lsrs	r2, r2, #24
 8001118:	2a7e      	cmp	r2, #126	; 0x7e
 800111a:	dd03      	ble.n	8001124 <__aeabi_f2iz+0x18>
 800111c:	2a9d      	cmp	r2, #157	; 0x9d
 800111e:	dd02      	ble.n	8001126 <__aeabi_f2iz+0x1a>
 8001120:	4a09      	ldr	r2, [pc, #36]	; (8001148 <__aeabi_f2iz+0x3c>)
 8001122:	1898      	adds	r0, r3, r2
 8001124:	4770      	bx	lr
 8001126:	2080      	movs	r0, #128	; 0x80
 8001128:	0400      	lsls	r0, r0, #16
 800112a:	4301      	orrs	r1, r0
 800112c:	2a95      	cmp	r2, #149	; 0x95
 800112e:	dc07      	bgt.n	8001140 <__aeabi_f2iz+0x34>
 8001130:	2096      	movs	r0, #150	; 0x96
 8001132:	1a82      	subs	r2, r0, r2
 8001134:	40d1      	lsrs	r1, r2
 8001136:	4248      	negs	r0, r1
 8001138:	2b00      	cmp	r3, #0
 800113a:	d1f3      	bne.n	8001124 <__aeabi_f2iz+0x18>
 800113c:	0008      	movs	r0, r1
 800113e:	e7f1      	b.n	8001124 <__aeabi_f2iz+0x18>
 8001140:	3a96      	subs	r2, #150	; 0x96
 8001142:	4091      	lsls	r1, r2
 8001144:	e7f7      	b.n	8001136 <__aeabi_f2iz+0x2a>
 8001146:	46c0      	nop			; (mov r8, r8)
 8001148:	7fffffff 	.word	0x7fffffff

0800114c <__aeabi_i2f>:
 800114c:	b5f8      	push	{r3, r4, r5, r6, r7, lr}
 800114e:	2800      	cmp	r0, #0
 8001150:	d013      	beq.n	800117a <__aeabi_i2f+0x2e>
 8001152:	17c3      	asrs	r3, r0, #31
 8001154:	18c6      	adds	r6, r0, r3
 8001156:	405e      	eors	r6, r3
 8001158:	0fc4      	lsrs	r4, r0, #31
 800115a:	0030      	movs	r0, r6
 800115c:	f000 f886 	bl	800126c <__clzsi2>
 8001160:	239e      	movs	r3, #158	; 0x9e
 8001162:	0005      	movs	r5, r0
 8001164:	1a1b      	subs	r3, r3, r0
 8001166:	2b96      	cmp	r3, #150	; 0x96
 8001168:	dc0f      	bgt.n	800118a <__aeabi_i2f+0x3e>
 800116a:	2808      	cmp	r0, #8
 800116c:	dd01      	ble.n	8001172 <__aeabi_i2f+0x26>
 800116e:	3d08      	subs	r5, #8
 8001170:	40ae      	lsls	r6, r5
 8001172:	0276      	lsls	r6, r6, #9
 8001174:	0a76      	lsrs	r6, r6, #9
 8001176:	b2d8      	uxtb	r0, r3
 8001178:	e002      	b.n	8001180 <__aeabi_i2f+0x34>
 800117a:	2400      	movs	r4, #0
 800117c:	2000      	movs	r0, #0
 800117e:	2600      	movs	r6, #0
 8001180:	05c0      	lsls	r0, r0, #23
 8001182:	4330      	orrs	r0, r6
 8001184:	07e4      	lsls	r4, r4, #31
 8001186:	4320      	orrs	r0, r4
 8001188:	bdf8      	pop	{r3, r4, r5, r6, r7, pc}
 800118a:	2b99      	cmp	r3, #153	; 0x99
 800118c:	dd0c      	ble.n	80011a8 <__aeabi_i2f+0x5c>
 800118e:	2205      	movs	r2, #5
 8001190:	0031      	movs	r1, r6
 8001192:	1a12      	subs	r2, r2, r0
 8001194:	40d1      	lsrs	r1, r2
 8001196:	000a      	movs	r2, r1
 8001198:	0001      	movs	r1, r0
 800119a:	0030      	movs	r0, r6
 800119c:	311b      	adds	r1, #27
 800119e:	4088      	lsls	r0, r1
 80011a0:	1e41      	subs	r1, r0, #1
 80011a2:	4188      	sbcs	r0, r1
 80011a4:	4302      	orrs	r2, r0
 80011a6:	0016      	movs	r6, r2
 80011a8:	2d05      	cmp	r5, #5
 80011aa:	dc12      	bgt.n	80011d2 <__aeabi_i2f+0x86>
 80011ac:	0031      	movs	r1, r6
 80011ae:	4f0d      	ldr	r7, [pc, #52]	; (80011e4 <__aeabi_i2f+0x98>)
 80011b0:	4039      	ands	r1, r7
 80011b2:	0772      	lsls	r2, r6, #29
 80011b4:	d009      	beq.n	80011ca <__aeabi_i2f+0x7e>
 80011b6:	200f      	movs	r0, #15
 80011b8:	4030      	ands	r0, r6
 80011ba:	2804      	cmp	r0, #4
 80011bc:	d005      	beq.n	80011ca <__aeabi_i2f+0x7e>
 80011be:	3104      	adds	r1, #4
 80011c0:	014a      	lsls	r2, r1, #5
 80011c2:	d502      	bpl.n	80011ca <__aeabi_i2f+0x7e>
 80011c4:	239f      	movs	r3, #159	; 0x9f
 80011c6:	4039      	ands	r1, r7
 80011c8:	1b5b      	subs	r3, r3, r5
 80011ca:	0189      	lsls	r1, r1, #6
 80011cc:	0a4e      	lsrs	r6, r1, #9
 80011ce:	b2d8      	uxtb	r0, r3
 80011d0:	e7d6      	b.n	8001180 <__aeabi_i2f+0x34>
 80011d2:	1f6a      	subs	r2, r5, #5
 80011d4:	4096      	lsls	r6, r2
 80011d6:	0031      	movs	r1, r6
 80011d8:	4f02      	ldr	r7, [pc, #8]	; (80011e4 <__aeabi_i2f+0x98>)
 80011da:	4039      	ands	r1, r7
 80011dc:	0772      	lsls	r2, r6, #29
 80011de:	d0f4      	beq.n	80011ca <__aeabi_i2f+0x7e>
 80011e0:	e7e9      	b.n	80011b6 <__aeabi_i2f+0x6a>
 80011e2:	46c0      	nop			; (mov r8, r8)
 80011e4:	fbffffff 	.word	0xfbffffff

080011e8 <__aeabi_ui2f>:
 80011e8:	b570      	push	{r4, r5, r6, lr}
 80011ea:	1e05      	subs	r5, r0, #0
 80011ec:	d00e      	beq.n	800120c <__aeabi_ui2f+0x24>
 80011ee:	f000 f83d 	bl	800126c <__clzsi2>
 80011f2:	239e      	movs	r3, #158	; 0x9e
 80011f4:	0004      	movs	r4, r0
 80011f6:	1a1b      	subs	r3, r3, r0
 80011f8:	2b96      	cmp	r3, #150	; 0x96
 80011fa:	dc0c      	bgt.n	8001216 <__aeabi_ui2f+0x2e>
 80011fc:	2808      	cmp	r0, #8
 80011fe:	dd01      	ble.n	8001204 <__aeabi_ui2f+0x1c>
 8001200:	3c08      	subs	r4, #8
 8001202:	40a5      	lsls	r5, r4
 8001204:	026d      	lsls	r5, r5, #9
 8001206:	0a6d      	lsrs	r5, r5, #9
 8001208:	b2d8      	uxtb	r0, r3
 800120a:	e001      	b.n	8001210 <__aeabi_ui2f+0x28>
 800120c:	2000      	movs	r0, #0
 800120e:	2500      	movs	r5, #0
 8001210:	05c0      	lsls	r0, r0, #23
 8001212:	4328      	orrs	r0, r5
 8001214:	bd70      	pop	{r4, r5, r6, pc}
 8001216:	2b99      	cmp	r3, #153	; 0x99
 8001218:	dd09      	ble.n	800122e <__aeabi_ui2f+0x46>
 800121a:	0002      	movs	r2, r0
 800121c:	0029      	movs	r1, r5
 800121e:	321b      	adds	r2, #27
 8001220:	4091      	lsls	r1, r2
 8001222:	1e4a      	subs	r2, r1, #1
 8001224:	4191      	sbcs	r1, r2
 8001226:	2205      	movs	r2, #5
 8001228:	1a12      	subs	r2, r2, r0
 800122a:	40d5      	lsrs	r5, r2
 800122c:	430d      	orrs	r5, r1
 800122e:	2c05      	cmp	r4, #5
 8001230:	dc12      	bgt.n	8001258 <__aeabi_ui2f+0x70>
 8001232:	0029      	movs	r1, r5
 8001234:	4e0c      	ldr	r6, [pc, #48]	; (8001268 <__aeabi_ui2f+0x80>)
 8001236:	4031      	ands	r1, r6
 8001238:	076a      	lsls	r2, r5, #29
 800123a:	d009      	beq.n	8001250 <__aeabi_ui2f+0x68>
 800123c:	200f      	movs	r0, #15
 800123e:	4028      	ands	r0, r5
 8001240:	2804      	cmp	r0, #4
 8001242:	d005      	beq.n	8001250 <__aeabi_ui2f+0x68>
 8001244:	3104      	adds	r1, #4
 8001246:	014a      	lsls	r2, r1, #5
 8001248:	d502      	bpl.n	8001250 <__aeabi_ui2f+0x68>
 800124a:	239f      	movs	r3, #159	; 0x9f
 800124c:	4031      	ands	r1, r6
 800124e:	1b1b      	subs	r3, r3, r4
 8001250:	0189      	lsls	r1, r1, #6
 8001252:	0a4d      	lsrs	r5, r1, #9
 8001254:	b2d8      	uxtb	r0, r3
 8001256:	e7db      	b.n	8001210 <__aeabi_ui2f+0x28>
 8001258:	1f62      	subs	r2, r4, #5
 800125a:	4095      	lsls	r5, r2
 800125c:	0029      	movs	r1, r5
 800125e:	4e02      	ldr	r6, [pc, #8]	; (8001268 <__aeabi_ui2f+0x80>)
 8001260:	4031      	ands	r1, r6
 8001262:	076a      	lsls	r2, r5, #29
 8001264:	d0f4      	beq.n	8001250 <__aeabi_ui2f+0x68>
 8001266:	e7e9      	b.n	800123c <__aeabi_ui2f+0x54>
 8001268:	fbffffff 	.word	0xfbffffff

0800126c <__clzsi2>:
 800126c:	211c      	movs	r1, #28
 800126e:	2301      	movs	r3, #1
 8001270:	041b      	lsls	r3, r3, #16
 8001272:	4298      	cmp	r0, r3
 8001274:	d301      	bcc.n	800127a <__clzsi2+0xe>
 8001276:	0c00      	lsrs	r0, r0, #16
 8001278:	3910      	subs	r1, #16
 800127a:	0a1b      	lsrs	r3, r3, #8
 800127c:	4298      	cmp	r0, r3
 800127e:	d301      	bcc.n	8001284 <__clzsi2+0x18>
 8001280:	0a00      	lsrs	r0, r0, #8
 8001282:	3908      	subs	r1, #8
 8001284:	091b      	lsrs	r3, r3, #4
 8001286:	4298      	cmp	r0, r3
 8001288:	d301      	bcc.n	800128e <__clzsi2+0x22>
 800128a:	0900      	lsrs	r0, r0, #4
 800128c:	3904      	subs	r1, #4
 800128e:	a202      	add	r2, pc, #8	; (adr r2, 8001298 <__clzsi2+0x2c>)
 8001290:	5c10      	ldrb	r0, [r2, r0]
 8001292:	1840      	adds	r0, r0, r1
 8001294:	4770      	bx	lr
 8001296:	46c0      	nop			; (mov r8, r8)
 8001298:	02020304 	.word	0x02020304
 800129c:	01010101 	.word	0x01010101
	...

080012a8 <ADC_init>:

uint16_t get_adc2 (void) {
	return  adc_dat.adc_2;
}*/

void ADC_init (void){
 80012a8:	b580      	push	{r7, lr}
 80012aa:	af00      	add	r7, sp, #0
	SET_BIT(GPIOA->MODER, GPIO_MODER_MODER4);      //   
 80012ac:	2390      	movs	r3, #144	; 0x90
 80012ae:	05db      	lsls	r3, r3, #23
 80012b0:	681a      	ldr	r2, [r3, #0]
 80012b2:	2390      	movs	r3, #144	; 0x90
 80012b4:	05db      	lsls	r3, r3, #23
 80012b6:	21c0      	movs	r1, #192	; 0xc0
 80012b8:	0089      	lsls	r1, r1, #2
 80012ba:	430a      	orrs	r2, r1
 80012bc:	601a      	str	r2, [r3, #0]
	//SET_BIT(GPIOA->MODER, GPIO_MODER_MODER5);    //   
	SET_BIT(RCC->APB2ENR, RCC_APB2ENR_ADCEN);      //  
 80012be:	4b3e      	ldr	r3, [pc, #248]	; (80013b8 <ADC_init+0x110>)
 80012c0:	699a      	ldr	r2, [r3, #24]
 80012c2:	4b3d      	ldr	r3, [pc, #244]	; (80013b8 <ADC_init+0x110>)
 80012c4:	2180      	movs	r1, #128	; 0x80
 80012c6:	0089      	lsls	r1, r1, #2
 80012c8:	430a      	orrs	r2, r1
 80012ca:	619a      	str	r2, [r3, #24]
	SET_BIT(ADC1->SMPR, 0b011 << ADC_SMPR_SMP_Pos);//   
 80012cc:	4b3b      	ldr	r3, [pc, #236]	; (80013bc <ADC_init+0x114>)
 80012ce:	695a      	ldr	r2, [r3, #20]
 80012d0:	4b3a      	ldr	r3, [pc, #232]	; (80013bc <ADC_init+0x114>)
 80012d2:	2103      	movs	r1, #3
 80012d4:	430a      	orrs	r2, r1
 80012d6:	615a      	str	r2, [r3, #20]
	SET_BIT(ADC1->CHSELR, ADC_CHSELR_CHSEL4);      //   4
 80012d8:	4b38      	ldr	r3, [pc, #224]	; (80013bc <ADC_init+0x114>)
 80012da:	6a9a      	ldr	r2, [r3, #40]	; 0x28
 80012dc:	4b37      	ldr	r3, [pc, #220]	; (80013bc <ADC_init+0x114>)
 80012de:	2110      	movs	r1, #16
 80012e0:	430a      	orrs	r2, r1
 80012e2:	629a      	str	r2, [r3, #40]	; 0x28
	SET_BIT(ADC1->CHSELR, ADC_CHSELR_CHSEL5);      //   5
 80012e4:	4b35      	ldr	r3, [pc, #212]	; (80013bc <ADC_init+0x114>)
 80012e6:	6a9a      	ldr	r2, [r3, #40]	; 0x28
 80012e8:	4b34      	ldr	r3, [pc, #208]	; (80013bc <ADC_init+0x114>)
 80012ea:	2120      	movs	r1, #32
 80012ec:	430a      	orrs	r2, r1
 80012ee:	629a      	str	r2, [r3, #40]	; 0x28
//	SET_BIT(ADC1->CHSELR, ADC_CHSELR_CHSEL16);     //   temperature
//	SET_BIT(ADC->CCR, ADC_CCR_TSEN);               //   
	SET_BIT(ADC1->CR, ADC_CR_ADCAL);               //  
 80012f0:	4b32      	ldr	r3, [pc, #200]	; (80013bc <ADC_init+0x114>)
 80012f2:	689a      	ldr	r2, [r3, #8]
 80012f4:	4b31      	ldr	r3, [pc, #196]	; (80013bc <ADC_init+0x114>)
 80012f6:	2180      	movs	r1, #128	; 0x80
 80012f8:	0609      	lsls	r1, r1, #24
 80012fa:	430a      	orrs	r2, r1
 80012fc:	609a      	str	r2, [r3, #8]
	while (READ_BIT(ADC1->CR, ADC_CR_ADCAL));      //     
 80012fe:	46c0      	nop			; (mov r8, r8)
 8001300:	4b2e      	ldr	r3, [pc, #184]	; (80013bc <ADC_init+0x114>)
 8001302:	689b      	ldr	r3, [r3, #8]
 8001304:	2b00      	cmp	r3, #0
 8001306:	dbfb      	blt.n	8001300 <ADC_init+0x58>
	//SET_BIT(ADC1->IER, ADC_IER_EOCIE);           //  
	SET_BIT(ADC1->CFGR1, ADC_CFGR1_CONT);          //   
 8001308:	4b2c      	ldr	r3, [pc, #176]	; (80013bc <ADC_init+0x114>)
 800130a:	68da      	ldr	r2, [r3, #12]
 800130c:	4b2b      	ldr	r3, [pc, #172]	; (80013bc <ADC_init+0x114>)
 800130e:	2180      	movs	r1, #128	; 0x80
 8001310:	0189      	lsls	r1, r1, #6
 8001312:	430a      	orrs	r2, r1
 8001314:	60da      	str	r2, [r3, #12]
	//SET_BIT(ADC1->CFGR1, ADC_CFGR1_ALIGN);       //   
	SET_BIT(ADC1->CFGR1, ADC_CFGR1_DMAEN);         //  
 8001316:	4b29      	ldr	r3, [pc, #164]	; (80013bc <ADC_init+0x114>)
 8001318:	68da      	ldr	r2, [r3, #12]
 800131a:	4b28      	ldr	r3, [pc, #160]	; (80013bc <ADC_init+0x114>)
 800131c:	2101      	movs	r1, #1
 800131e:	430a      	orrs	r2, r1
 8001320:	60da      	str	r2, [r3, #12]
	SET_BIT(ADC1->CFGR1, ADC_CFGR1_DMACFG);        //    
 8001322:	4b26      	ldr	r3, [pc, #152]	; (80013bc <ADC_init+0x114>)
 8001324:	68da      	ldr	r2, [r3, #12]
 8001326:	4b25      	ldr	r3, [pc, #148]	; (80013bc <ADC_init+0x114>)
 8001328:	2102      	movs	r1, #2
 800132a:	430a      	orrs	r2, r1
 800132c:	60da      	str	r2, [r3, #12]
	SET_BIT(ADC1->CR, ADC_CR_ADEN);                //  
 800132e:	4b23      	ldr	r3, [pc, #140]	; (80013bc <ADC_init+0x114>)
 8001330:	689a      	ldr	r2, [r3, #8]
 8001332:	4b22      	ldr	r3, [pc, #136]	; (80013bc <ADC_init+0x114>)
 8001334:	2101      	movs	r1, #1
 8001336:	430a      	orrs	r2, r1
 8001338:	609a      	str	r2, [r3, #8]
	SET_BIT(ADC1->CR, ADC_CR_ADSTART);             //  
 800133a:	4b20      	ldr	r3, [pc, #128]	; (80013bc <ADC_init+0x114>)
 800133c:	689a      	ldr	r2, [r3, #8]
 800133e:	4b1f      	ldr	r3, [pc, #124]	; (80013bc <ADC_init+0x114>)
 8001340:	2104      	movs	r1, #4
 8001342:	430a      	orrs	r2, r1
 8001344:	609a      	str	r2, [r3, #8]
	//NVIC_EnableIRQ(ADC1_IRQn);
	//NVIC_SetPriority(ADC1_IRQn, 3);              //  

	//----------------------- DMA --------------------------//
	SET_BIT(RCC->AHBENR, RCC_AHBENR_DMAEN);                 //   
 8001346:	4b1c      	ldr	r3, [pc, #112]	; (80013b8 <ADC_init+0x110>)
 8001348:	695a      	ldr	r2, [r3, #20]
 800134a:	4b1b      	ldr	r3, [pc, #108]	; (80013b8 <ADC_init+0x110>)
 800134c:	2101      	movs	r1, #1
 800134e:	430a      	orrs	r2, r1
 8001350:	615a      	str	r2, [r3, #20]
	DMA1_Channel1->CPAR = (uint32_t)&(ADC1->DR);            //     
 8001352:	4b1b      	ldr	r3, [pc, #108]	; (80013c0 <ADC_init+0x118>)
 8001354:	4a1b      	ldr	r2, [pc, #108]	; (80013c4 <ADC_init+0x11c>)
 8001356:	609a      	str	r2, [r3, #8]
	DMA1_Channel1->CMAR = (uint32_t)adc_buf;                //  
 8001358:	4b19      	ldr	r3, [pc, #100]	; (80013c0 <ADC_init+0x118>)
 800135a:	4a1b      	ldr	r2, [pc, #108]	; (80013c8 <ADC_init+0x120>)
 800135c:	60da      	str	r2, [r3, #12]
	DMA1_Channel1->CNDTR = 2;                               //   
 800135e:	4b18      	ldr	r3, [pc, #96]	; (80013c0 <ADC_init+0x118>)
 8001360:	2202      	movs	r2, #2
 8001362:	605a      	str	r2, [r3, #4]
	SET_BIT(DMA1_Channel1->CCR, DMA_CCR_PL_1);              //  
 8001364:	4b16      	ldr	r3, [pc, #88]	; (80013c0 <ADC_init+0x118>)
 8001366:	681a      	ldr	r2, [r3, #0]
 8001368:	4b15      	ldr	r3, [pc, #84]	; (80013c0 <ADC_init+0x118>)
 800136a:	2180      	movs	r1, #128	; 0x80
 800136c:	0189      	lsls	r1, r1, #6
 800136e:	430a      	orrs	r2, r1
 8001370:	601a      	str	r2, [r3, #0]
	SET_BIT(DMA1_Channel1->CCR, DMA_CCR_CIRC);              //  
 8001372:	4b13      	ldr	r3, [pc, #76]	; (80013c0 <ADC_init+0x118>)
 8001374:	681a      	ldr	r2, [r3, #0]
 8001376:	4b12      	ldr	r3, [pc, #72]	; (80013c0 <ADC_init+0x118>)
 8001378:	2120      	movs	r1, #32
 800137a:	430a      	orrs	r2, r1
 800137c:	601a      	str	r2, [r3, #0]
	SET_BIT(DMA1_Channel1->CCR, DMA_CCR_MSIZE_0);           //   16 
 800137e:	4b10      	ldr	r3, [pc, #64]	; (80013c0 <ADC_init+0x118>)
 8001380:	681a      	ldr	r2, [r3, #0]
 8001382:	4b0f      	ldr	r3, [pc, #60]	; (80013c0 <ADC_init+0x118>)
 8001384:	2180      	movs	r1, #128	; 0x80
 8001386:	00c9      	lsls	r1, r1, #3
 8001388:	430a      	orrs	r2, r1
 800138a:	601a      	str	r2, [r3, #0]
	SET_BIT(DMA1_Channel1->CCR, DMA_CCR_PSIZE_0);           //   16 
 800138c:	4b0c      	ldr	r3, [pc, #48]	; (80013c0 <ADC_init+0x118>)
 800138e:	681a      	ldr	r2, [r3, #0]
 8001390:	4b0b      	ldr	r3, [pc, #44]	; (80013c0 <ADC_init+0x118>)
 8001392:	2180      	movs	r1, #128	; 0x80
 8001394:	0049      	lsls	r1, r1, #1
 8001396:	430a      	orrs	r2, r1
 8001398:	601a      	str	r2, [r3, #0]
	SET_BIT(DMA1_Channel1->CCR, DMA_CCR_MINC);              //  
 800139a:	4b09      	ldr	r3, [pc, #36]	; (80013c0 <ADC_init+0x118>)
 800139c:	681a      	ldr	r2, [r3, #0]
 800139e:	4b08      	ldr	r3, [pc, #32]	; (80013c0 <ADC_init+0x118>)
 80013a0:	2180      	movs	r1, #128	; 0x80
 80013a2:	430a      	orrs	r2, r1
 80013a4:	601a      	str	r2, [r3, #0]
	//SET_BIT(DMA1_Channel1->CCR, DMA_CCR_TCIE);              //   ,  ?
	//NVIC_EnableIRQ(DMA1_Channel1_IRQn);
	SET_BIT(DMA1_Channel1->CCR, DMA_CCR_EN);                //  
 80013a6:	4b06      	ldr	r3, [pc, #24]	; (80013c0 <ADC_init+0x118>)
 80013a8:	681a      	ldr	r2, [r3, #0]
 80013aa:	4b05      	ldr	r3, [pc, #20]	; (80013c0 <ADC_init+0x118>)
 80013ac:	2101      	movs	r1, #1
 80013ae:	430a      	orrs	r2, r1
 80013b0:	601a      	str	r2, [r3, #0]
}
 80013b2:	46c0      	nop			; (mov r8, r8)
 80013b4:	46bd      	mov	sp, r7
 80013b6:	bd80      	pop	{r7, pc}
 80013b8:	40021000 	.word	0x40021000
 80013bc:	40012400 	.word	0x40012400
 80013c0:	40020008 	.word	0x40020008
 80013c4:	40012440 	.word	0x40012440
 80013c8:	2000003c 	.word	0x2000003c

080013cc <map>:

#include "main.h"

long map(long x, long in_min, long in_max, long out_min, long out_max) {
 80013cc:	b580      	push	{r7, lr}
 80013ce:	b084      	sub	sp, #16
 80013d0:	af00      	add	r7, sp, #0
 80013d2:	60f8      	str	r0, [r7, #12]
 80013d4:	60b9      	str	r1, [r7, #8]
 80013d6:	607a      	str	r2, [r7, #4]
 80013d8:	603b      	str	r3, [r7, #0]
  return (x - in_min) * (out_max - out_min) / (in_max - in_min) + out_min;
 80013da:	68fa      	ldr	r2, [r7, #12]
 80013dc:	68bb      	ldr	r3, [r7, #8]
 80013de:	1ad3      	subs	r3, r2, r3
 80013e0:	69b9      	ldr	r1, [r7, #24]
 80013e2:	683a      	ldr	r2, [r7, #0]
 80013e4:	1a8a      	subs	r2, r1, r2
 80013e6:	435a      	muls	r2, r3
 80013e8:	0010      	movs	r0, r2
 80013ea:	687a      	ldr	r2, [r7, #4]
 80013ec:	68bb      	ldr	r3, [r7, #8]
 80013ee:	1ad3      	subs	r3, r2, r3
 80013f0:	0019      	movs	r1, r3
 80013f2:	f7fe ff13 	bl	800021c <__divsi3>
 80013f6:	0003      	movs	r3, r0
 80013f8:	001a      	movs	r2, r3
 80013fa:	683b      	ldr	r3, [r7, #0]
 80013fc:	18d3      	adds	r3, r2, r3
}
 80013fe:	0018      	movs	r0, r3
 8001400:	46bd      	mov	sp, r7
 8001402:	b004      	add	sp, #16
 8001404:	bd80      	pop	{r7, pc}

08001406 <new_baud>:

uint32_t new_baud (uint32_t baud){
 8001406:	b580      	push	{r7, lr}
 8001408:	b082      	sub	sp, #8
 800140a:	af00      	add	r7, sp, #0
 800140c:	6078      	str	r0, [r7, #4]
	if (baud == 9600 || baud == 19200 || baud == 38400 || baud == 57600 || baud == 115200) {
 800140e:	687a      	ldr	r2, [r7, #4]
 8001410:	2396      	movs	r3, #150	; 0x96
 8001412:	019b      	lsls	r3, r3, #6
 8001414:	429a      	cmp	r2, r3
 8001416:	d013      	beq.n	8001440 <new_baud+0x3a>
 8001418:	687a      	ldr	r2, [r7, #4]
 800141a:	2396      	movs	r3, #150	; 0x96
 800141c:	01db      	lsls	r3, r3, #7
 800141e:	429a      	cmp	r2, r3
 8001420:	d00e      	beq.n	8001440 <new_baud+0x3a>
 8001422:	687a      	ldr	r2, [r7, #4]
 8001424:	2396      	movs	r3, #150	; 0x96
 8001426:	021b      	lsls	r3, r3, #8
 8001428:	429a      	cmp	r2, r3
 800142a:	d009      	beq.n	8001440 <new_baud+0x3a>
 800142c:	687a      	ldr	r2, [r7, #4]
 800142e:	23e1      	movs	r3, #225	; 0xe1
 8001430:	021b      	lsls	r3, r3, #8
 8001432:	429a      	cmp	r2, r3
 8001434:	d004      	beq.n	8001440 <new_baud+0x3a>
 8001436:	687a      	ldr	r2, [r7, #4]
 8001438:	23e1      	movs	r3, #225	; 0xe1
 800143a:	025b      	lsls	r3, r3, #9
 800143c:	429a      	cmp	r2, r3
 800143e:	d101      	bne.n	8001444 <new_baud+0x3e>
		return baud;
 8001440:	687b      	ldr	r3, [r7, #4]
 8001442:	e000      	b.n	8001446 <new_baud+0x40>
	} else return 0x00;
 8001444:	2300      	movs	r3, #0
}
 8001446:	0018      	movs	r0, r3
 8001448:	46bd      	mov	sp, r7
 800144a:	b002      	add	sp, #8
 800144c:	bd80      	pop	{r7, pc}
	...

08001450 <new_baud_set>:

void new_baud_set (uint32_t baud){
 8001450:	b580      	push	{r7, lr}
 8001452:	b082      	sub	sp, #8
 8001454:	af00      	add	r7, sp, #0
 8001456:	6078      	str	r0, [r7, #4]
		CLEAR_BIT(USART1->CR1, USART_CR1_UE);  //  USART
 8001458:	4b0a      	ldr	r3, [pc, #40]	; (8001484 <new_baud_set+0x34>)
 800145a:	681a      	ldr	r2, [r3, #0]
 800145c:	4b09      	ldr	r3, [pc, #36]	; (8001484 <new_baud_set+0x34>)
 800145e:	2101      	movs	r1, #1
 8001460:	438a      	bics	r2, r1
 8001462:	601a      	str	r2, [r3, #0]
		set_baud(USART2, baud);
 8001464:	687b      	ldr	r3, [r7, #4]
 8001466:	4a08      	ldr	r2, [pc, #32]	; (8001488 <new_baud_set+0x38>)
 8001468:	0019      	movs	r1, r3
 800146a:	0010      	movs	r0, r2
 800146c:	f001 fa18 	bl	80028a0 <set_baud>
		SET_BIT(USART1->CR1, USART_CR1_UE);    //  USART
 8001470:	4b04      	ldr	r3, [pc, #16]	; (8001484 <new_baud_set+0x34>)
 8001472:	681a      	ldr	r2, [r3, #0]
 8001474:	4b03      	ldr	r3, [pc, #12]	; (8001484 <new_baud_set+0x34>)
 8001476:	2101      	movs	r1, #1
 8001478:	430a      	orrs	r2, r1
 800147a:	601a      	str	r2, [r3, #0]
}
 800147c:	46c0      	nop			; (mov r8, r8)
 800147e:	46bd      	mov	sp, r7
 8001480:	b002      	add	sp, #8
 8001482:	bd80      	pop	{r7, pc}
 8001484:	40013800 	.word	0x40013800
 8001488:	40004400 	.word	0x40004400

0800148c <new_speed>:

uint32_t new_speed (uint32_t speed, uint32_t num_motor){     //   .
 800148c:	b580      	push	{r7, lr}
 800148e:	b084      	sub	sp, #16
 8001490:	af02      	add	r7, sp, #8
 8001492:	6078      	str	r0, [r7, #4]
 8001494:	6039      	str	r1, [r7, #0]
	if (speed > 1000) return 0;                              //    
 8001496:	687a      	ldr	r2, [r7, #4]
 8001498:	23fa      	movs	r3, #250	; 0xfa
 800149a:	009b      	lsls	r3, r3, #2
 800149c:	429a      	cmp	r2, r3
 800149e:	d901      	bls.n	80014a4 <new_speed+0x18>
 80014a0:	2300      	movs	r3, #0
 80014a2:	e020      	b.n	80014e6 <new_speed+0x5a>
	if (num_motor == 0) {
 80014a4:	683b      	ldr	r3, [r7, #0]
 80014a6:	2b00      	cmp	r3, #0
 80014a8:	d10c      	bne.n	80014c4 <new_speed+0x38>
		TIM17->ARR = map (speed, 0, 1000, 10000, 100);
 80014aa:	6878      	ldr	r0, [r7, #4]
 80014ac:	4910      	ldr	r1, [pc, #64]	; (80014f0 <new_speed+0x64>)
 80014ae:	23fa      	movs	r3, #250	; 0xfa
 80014b0:	009a      	lsls	r2, r3, #2
 80014b2:	2364      	movs	r3, #100	; 0x64
 80014b4:	9300      	str	r3, [sp, #0]
 80014b6:	000b      	movs	r3, r1
 80014b8:	2100      	movs	r1, #0
 80014ba:	f7ff ff87 	bl	80013cc <map>
 80014be:	0002      	movs	r2, r0
 80014c0:	4b0c      	ldr	r3, [pc, #48]	; (80014f4 <new_speed+0x68>)
 80014c2:	62da      	str	r2, [r3, #44]	; 0x2c
	}
	if (num_motor == 1) {
 80014c4:	683b      	ldr	r3, [r7, #0]
 80014c6:	2b01      	cmp	r3, #1
 80014c8:	d10c      	bne.n	80014e4 <new_speed+0x58>
		TIM16->ARR = map (speed, 0, 1000, 10000, 100);
 80014ca:	6878      	ldr	r0, [r7, #4]
 80014cc:	4908      	ldr	r1, [pc, #32]	; (80014f0 <new_speed+0x64>)
 80014ce:	23fa      	movs	r3, #250	; 0xfa
 80014d0:	009a      	lsls	r2, r3, #2
 80014d2:	2364      	movs	r3, #100	; 0x64
 80014d4:	9300      	str	r3, [sp, #0]
 80014d6:	000b      	movs	r3, r1
 80014d8:	2100      	movs	r1, #0
 80014da:	f7ff ff77 	bl	80013cc <map>
 80014de:	0002      	movs	r2, r0
 80014e0:	4b05      	ldr	r3, [pc, #20]	; (80014f8 <new_speed+0x6c>)
 80014e2:	62da      	str	r2, [r3, #44]	; 0x2c
	}
	return speed;
 80014e4:	687b      	ldr	r3, [r7, #4]
}
 80014e6:	0018      	movs	r0, r3
 80014e8:	46bd      	mov	sp, r7
 80014ea:	b002      	add	sp, #8
 80014ec:	bd80      	pop	{r7, pc}
 80014ee:	46c0      	nop			; (mov r8, r8)
 80014f0:	00002710 	.word	0x00002710
 80014f4:	40014800 	.word	0x40014800
 80014f8:	40014400 	.word	0x40014400

080014fc <init_flash_data>:
	Delay_ms(2);
	write_to_TMC2300 (3,0x6C, 0x8008001);   //    1
	Delay_ms(2);
}

void init_flash_data (void) {                                //    
 80014fc:	b580      	push	{r7, lr}
 80014fe:	af00      	add	r7, sp, #0
	TIM17->ARR = 10000;                     // 
 8001500:	4b0b      	ldr	r3, [pc, #44]	; (8001530 <init_flash_data+0x34>)
 8001502:	4a0c      	ldr	r2, [pc, #48]	; (8001534 <init_flash_data+0x38>)
 8001504:	62da      	str	r2, [r3, #44]	; 0x2c
	write_to_TMC2300 (1,0x6C, 0x3008001);   //    32
 8001506:	4b0c      	ldr	r3, [pc, #48]	; (8001538 <init_flash_data+0x3c>)
 8001508:	001a      	movs	r2, r3
 800150a:	216c      	movs	r1, #108	; 0x6c
 800150c:	2001      	movs	r0, #1
 800150e:	f001 fa47 	bl	80029a0 <write_to_TMC2300>
	Delay_ms(2);
 8001512:	2002      	movs	r0, #2
 8001514:	f000 fa26 	bl	8001964 <Delay_ms>
	write_to_TMC2300 (3,0x6C, 0x3008001);   //    32
 8001518:	4b07      	ldr	r3, [pc, #28]	; (8001538 <init_flash_data+0x3c>)
 800151a:	001a      	movs	r2, r3
 800151c:	216c      	movs	r1, #108	; 0x6c
 800151e:	2003      	movs	r0, #3
 8001520:	f001 fa3e 	bl	80029a0 <write_to_TMC2300>
	Delay_ms(2);
 8001524:	2002      	movs	r0, #2
 8001526:	f000 fa1d 	bl	8001964 <Delay_ms>

}
 800152a:	46c0      	nop			; (mov r8, r8)
 800152c:	46bd      	mov	sp, r7
 800152e:	bd80      	pop	{r7, pc}
 8001530:	40014800 	.word	0x40014800
 8001534:	00002710 	.word	0x00002710
 8001538:	03008001 	.word	0x03008001

0800153c <__NVIC_EnableIRQ>:
  \details Enables a device specific interrupt in the NVIC interrupt controller.
  \param [in]      IRQn  Device specific interrupt number.
  \note    IRQn must not be negative.
 */
__STATIC_INLINE void __NVIC_EnableIRQ(IRQn_Type IRQn)
{
 800153c:	b580      	push	{r7, lr}
 800153e:	b082      	sub	sp, #8
 8001540:	af00      	add	r7, sp, #0
 8001542:	0002      	movs	r2, r0
 8001544:	1dfb      	adds	r3, r7, #7
 8001546:	701a      	strb	r2, [r3, #0]
  if ((int32_t)(IRQn) >= 0)
 8001548:	1dfb      	adds	r3, r7, #7
 800154a:	781b      	ldrb	r3, [r3, #0]
 800154c:	2b7f      	cmp	r3, #127	; 0x7f
 800154e:	d809      	bhi.n	8001564 <__NVIC_EnableIRQ+0x28>
  {
    NVIC->ISER[0U] = (uint32_t)(1UL << (((uint32_t)IRQn) & 0x1FUL));
 8001550:	1dfb      	adds	r3, r7, #7
 8001552:	781b      	ldrb	r3, [r3, #0]
 8001554:	001a      	movs	r2, r3
 8001556:	231f      	movs	r3, #31
 8001558:	401a      	ands	r2, r3
 800155a:	4b04      	ldr	r3, [pc, #16]	; (800156c <__NVIC_EnableIRQ+0x30>)
 800155c:	2101      	movs	r1, #1
 800155e:	4091      	lsls	r1, r2
 8001560:	000a      	movs	r2, r1
 8001562:	601a      	str	r2, [r3, #0]
  }
}
 8001564:	46c0      	nop			; (mov r8, r8)
 8001566:	46bd      	mov	sp, r7
 8001568:	b002      	add	sp, #8
 800156a:	bd80      	pop	{r7, pc}
 800156c:	e000e100 	.word	0xe000e100

08001570 <__NVIC_SetPriority>:
  \param [in]      IRQn  Interrupt number.
  \param [in]  priority  Priority to set.
  \note    The priority cannot be set for every processor exception.
 */
__STATIC_INLINE void __NVIC_SetPriority(IRQn_Type IRQn, uint32_t priority)
{
 8001570:	b590      	push	{r4, r7, lr}
 8001572:	b083      	sub	sp, #12
 8001574:	af00      	add	r7, sp, #0
 8001576:	0002      	movs	r2, r0
 8001578:	6039      	str	r1, [r7, #0]
 800157a:	1dfb      	adds	r3, r7, #7
 800157c:	701a      	strb	r2, [r3, #0]
  if ((int32_t)(IRQn) >= 0)
 800157e:	1dfb      	adds	r3, r7, #7
 8001580:	781b      	ldrb	r3, [r3, #0]
 8001582:	2b7f      	cmp	r3, #127	; 0x7f
 8001584:	d828      	bhi.n	80015d8 <__NVIC_SetPriority+0x68>
  {
    NVIC->IP[_IP_IDX(IRQn)]  = ((uint32_t)(NVIC->IP[_IP_IDX(IRQn)]  & ~(0xFFUL << _BIT_SHIFT(IRQn))) |
 8001586:	4a2f      	ldr	r2, [pc, #188]	; (8001644 <__NVIC_SetPriority+0xd4>)
 8001588:	1dfb      	adds	r3, r7, #7
 800158a:	781b      	ldrb	r3, [r3, #0]
 800158c:	b25b      	sxtb	r3, r3
 800158e:	089b      	lsrs	r3, r3, #2
 8001590:	33c0      	adds	r3, #192	; 0xc0
 8001592:	009b      	lsls	r3, r3, #2
 8001594:	589b      	ldr	r3, [r3, r2]
 8001596:	1dfa      	adds	r2, r7, #7
 8001598:	7812      	ldrb	r2, [r2, #0]
 800159a:	0011      	movs	r1, r2
 800159c:	2203      	movs	r2, #3
 800159e:	400a      	ands	r2, r1
 80015a0:	00d2      	lsls	r2, r2, #3
 80015a2:	21ff      	movs	r1, #255	; 0xff
 80015a4:	4091      	lsls	r1, r2
 80015a6:	000a      	movs	r2, r1
 80015a8:	43d2      	mvns	r2, r2
 80015aa:	401a      	ands	r2, r3
 80015ac:	0011      	movs	r1, r2
       (((priority << (8U - __NVIC_PRIO_BITS)) & (uint32_t)0xFFUL) << _BIT_SHIFT(IRQn)));
 80015ae:	683b      	ldr	r3, [r7, #0]
 80015b0:	019b      	lsls	r3, r3, #6
 80015b2:	22ff      	movs	r2, #255	; 0xff
 80015b4:	401a      	ands	r2, r3
 80015b6:	1dfb      	adds	r3, r7, #7
 80015b8:	781b      	ldrb	r3, [r3, #0]
 80015ba:	0018      	movs	r0, r3
 80015bc:	2303      	movs	r3, #3
 80015be:	4003      	ands	r3, r0
 80015c0:	00db      	lsls	r3, r3, #3
 80015c2:	409a      	lsls	r2, r3
    NVIC->IP[_IP_IDX(IRQn)]  = ((uint32_t)(NVIC->IP[_IP_IDX(IRQn)]  & ~(0xFFUL << _BIT_SHIFT(IRQn))) |
 80015c4:	481f      	ldr	r0, [pc, #124]	; (8001644 <__NVIC_SetPriority+0xd4>)
 80015c6:	1dfb      	adds	r3, r7, #7
 80015c8:	781b      	ldrb	r3, [r3, #0]
 80015ca:	b25b      	sxtb	r3, r3
 80015cc:	089b      	lsrs	r3, r3, #2
 80015ce:	430a      	orrs	r2, r1
 80015d0:	33c0      	adds	r3, #192	; 0xc0
 80015d2:	009b      	lsls	r3, r3, #2
 80015d4:	501a      	str	r2, [r3, r0]
  else
  {
    SCB->SHP[_SHP_IDX(IRQn)] = ((uint32_t)(SCB->SHP[_SHP_IDX(IRQn)] & ~(0xFFUL << _BIT_SHIFT(IRQn))) |
       (((priority << (8U - __NVIC_PRIO_BITS)) & (uint32_t)0xFFUL) << _BIT_SHIFT(IRQn)));
  }
}
 80015d6:	e031      	b.n	800163c <__NVIC_SetPriority+0xcc>
    SCB->SHP[_SHP_IDX(IRQn)] = ((uint32_t)(SCB->SHP[_SHP_IDX(IRQn)] & ~(0xFFUL << _BIT_SHIFT(IRQn))) |
 80015d8:	4a1b      	ldr	r2, [pc, #108]	; (8001648 <__NVIC_SetPriority+0xd8>)
 80015da:	1dfb      	adds	r3, r7, #7
 80015dc:	781b      	ldrb	r3, [r3, #0]
 80015de:	0019      	movs	r1, r3
 80015e0:	230f      	movs	r3, #15
 80015e2:	400b      	ands	r3, r1
 80015e4:	3b08      	subs	r3, #8
 80015e6:	089b      	lsrs	r3, r3, #2
 80015e8:	3306      	adds	r3, #6
 80015ea:	009b      	lsls	r3, r3, #2
 80015ec:	18d3      	adds	r3, r2, r3
 80015ee:	3304      	adds	r3, #4
 80015f0:	681b      	ldr	r3, [r3, #0]
 80015f2:	1dfa      	adds	r2, r7, #7
 80015f4:	7812      	ldrb	r2, [r2, #0]
 80015f6:	0011      	movs	r1, r2
 80015f8:	2203      	movs	r2, #3
 80015fa:	400a      	ands	r2, r1
 80015fc:	00d2      	lsls	r2, r2, #3
 80015fe:	21ff      	movs	r1, #255	; 0xff
 8001600:	4091      	lsls	r1, r2
 8001602:	000a      	movs	r2, r1
 8001604:	43d2      	mvns	r2, r2
 8001606:	401a      	ands	r2, r3
 8001608:	0011      	movs	r1, r2
       (((priority << (8U - __NVIC_PRIO_BITS)) & (uint32_t)0xFFUL) << _BIT_SHIFT(IRQn)));
 800160a:	683b      	ldr	r3, [r7, #0]
 800160c:	019b      	lsls	r3, r3, #6
 800160e:	22ff      	movs	r2, #255	; 0xff
 8001610:	401a      	ands	r2, r3
 8001612:	1dfb      	adds	r3, r7, #7
 8001614:	781b      	ldrb	r3, [r3, #0]
 8001616:	0018      	movs	r0, r3
 8001618:	2303      	movs	r3, #3
 800161a:	4003      	ands	r3, r0
 800161c:	00db      	lsls	r3, r3, #3
 800161e:	409a      	lsls	r2, r3
    SCB->SHP[_SHP_IDX(IRQn)] = ((uint32_t)(SCB->SHP[_SHP_IDX(IRQn)] & ~(0xFFUL << _BIT_SHIFT(IRQn))) |
 8001620:	4809      	ldr	r0, [pc, #36]	; (8001648 <__NVIC_SetPriority+0xd8>)
 8001622:	1dfb      	adds	r3, r7, #7
 8001624:	781b      	ldrb	r3, [r3, #0]
 8001626:	001c      	movs	r4, r3
 8001628:	230f      	movs	r3, #15
 800162a:	4023      	ands	r3, r4
 800162c:	3b08      	subs	r3, #8
 800162e:	089b      	lsrs	r3, r3, #2
 8001630:	430a      	orrs	r2, r1
 8001632:	3306      	adds	r3, #6
 8001634:	009b      	lsls	r3, r3, #2
 8001636:	18c3      	adds	r3, r0, r3
 8001638:	3304      	adds	r3, #4
 800163a:	601a      	str	r2, [r3, #0]
}
 800163c:	46c0      	nop			; (mov r8, r8)
 800163e:	46bd      	mov	sp, r7
 8001640:	b003      	add	sp, #12
 8001642:	bd90      	pop	{r4, r7, pc}
 8001644:	e000e100 	.word	0xe000e100
 8001648:	e000ed00 	.word	0xe000ed00

0800164c <init_rcc>:
volatile uint32_t Delay_counter_ms = 0; //   Delay_ms
volatile uint32_t counter_ms = 0; //   pid
volatile uint32_t counter_ms1 = 0; //   pid
extern struct _flags *point_flags;

void init_rcc(void) {
 800164c:	b580      	push	{r7, lr}
 800164e:	af00      	add	r7, sp, #0
	SET_BIT(RCC->CR, RCC_CR_HSEON); //   .     8 MHz.
 8001650:	4b33      	ldr	r3, [pc, #204]	; (8001720 <init_rcc+0xd4>)
 8001652:	681a      	ldr	r2, [r3, #0]
 8001654:	4b32      	ldr	r3, [pc, #200]	; (8001720 <init_rcc+0xd4>)
 8001656:	2180      	movs	r1, #128	; 0x80
 8001658:	0249      	lsls	r1, r1, #9
 800165a:	430a      	orrs	r2, r1
 800165c:	601a      	str	r2, [r3, #0]
	while (READ_BIT(RCC->CR, RCC_CR_HSERDY) == 0); //    
 800165e:	46c0      	nop			; (mov r8, r8)
 8001660:	4b2f      	ldr	r3, [pc, #188]	; (8001720 <init_rcc+0xd4>)
 8001662:	681a      	ldr	r2, [r3, #0]
 8001664:	2380      	movs	r3, #128	; 0x80
 8001666:	029b      	lsls	r3, r3, #10
 8001668:	4013      	ands	r3, r2
 800166a:	d0f9      	beq.n	8001660 <init_rcc+0x14>
	SET_BIT(FLASH->ACR, FLASH_ACR_LATENCY);        //   
 800166c:	4b2d      	ldr	r3, [pc, #180]	; (8001724 <init_rcc+0xd8>)
 800166e:	681a      	ldr	r2, [r3, #0]
 8001670:	4b2c      	ldr	r3, [pc, #176]	; (8001724 <init_rcc+0xd8>)
 8001672:	2101      	movs	r1, #1
 8001674:	430a      	orrs	r2, r1
 8001676:	601a      	str	r2, [r3, #0]
	SET_BIT(FLASH->ACR, FLASH_ACR_PRFTBE);         //     ??
 8001678:	4b2a      	ldr	r3, [pc, #168]	; (8001724 <init_rcc+0xd8>)
 800167a:	681a      	ldr	r2, [r3, #0]
 800167c:	4b29      	ldr	r3, [pc, #164]	; (8001724 <init_rcc+0xd8>)
 800167e:	2110      	movs	r1, #16
 8001680:	430a      	orrs	r2, r1
 8001682:	601a      	str	r2, [r3, #0]
	MODIFY_REG(RCC->CFGR, RCC_CFGR_PLLMUL, RCC_CFGR_PLLMUL6); //   6 PLLMUL
 8001684:	4b26      	ldr	r3, [pc, #152]	; (8001720 <init_rcc+0xd4>)
 8001686:	685b      	ldr	r3, [r3, #4]
 8001688:	4a27      	ldr	r2, [pc, #156]	; (8001728 <init_rcc+0xdc>)
 800168a:	401a      	ands	r2, r3
 800168c:	4b24      	ldr	r3, [pc, #144]	; (8001720 <init_rcc+0xd4>)
 800168e:	2180      	movs	r1, #128	; 0x80
 8001690:	0349      	lsls	r1, r1, #13
 8001692:	430a      	orrs	r2, r1
 8001694:	605a      	str	r2, [r3, #4]
	MODIFY_REG(RCC->CFGR, RCC_CFGR_PPRE, RCC_CFGR_PPRE_DIV1); // APB1  1
 8001696:	4b22      	ldr	r3, [pc, #136]	; (8001720 <init_rcc+0xd4>)
 8001698:	685a      	ldr	r2, [r3, #4]
 800169a:	4b21      	ldr	r3, [pc, #132]	; (8001720 <init_rcc+0xd4>)
 800169c:	4923      	ldr	r1, [pc, #140]	; (800172c <init_rcc+0xe0>)
 800169e:	400a      	ands	r2, r1
 80016a0:	605a      	str	r2, [r3, #4]
	MODIFY_REG(RCC->CFGR, RCC_CFGR_HPRE, RCC_CFGR_HPRE_DIV1); // AHB  1
 80016a2:	4b1f      	ldr	r3, [pc, #124]	; (8001720 <init_rcc+0xd4>)
 80016a4:	685a      	ldr	r2, [r3, #4]
 80016a6:	4b1e      	ldr	r3, [pc, #120]	; (8001720 <init_rcc+0xd4>)
 80016a8:	21f0      	movs	r1, #240	; 0xf0
 80016aa:	438a      	bics	r2, r1
 80016ac:	605a      	str	r2, [r3, #4]
	MODIFY_REG(RCC->CFGR, RCC_CFGR_PLLSRC, RCC_CFGR_PLLSRC_HSE_PREDIV); // HSE    PLL
 80016ae:	4b1c      	ldr	r3, [pc, #112]	; (8001720 <init_rcc+0xd4>)
 80016b0:	685b      	ldr	r3, [r3, #4]
 80016b2:	4a1f      	ldr	r2, [pc, #124]	; (8001730 <init_rcc+0xe4>)
 80016b4:	401a      	ands	r2, r3
 80016b6:	4b1a      	ldr	r3, [pc, #104]	; (8001720 <init_rcc+0xd4>)
 80016b8:	2180      	movs	r1, #128	; 0x80
 80016ba:	0249      	lsls	r1, r1, #9
 80016bc:	430a      	orrs	r2, r1
 80016be:	605a      	str	r2, [r3, #4]
	SET_BIT(RCC->CR, RCC_CR_CSSON); // CSS
 80016c0:	4b17      	ldr	r3, [pc, #92]	; (8001720 <init_rcc+0xd4>)
 80016c2:	681a      	ldr	r2, [r3, #0]
 80016c4:	4b16      	ldr	r3, [pc, #88]	; (8001720 <init_rcc+0xd4>)
 80016c6:	2180      	movs	r1, #128	; 0x80
 80016c8:	0309      	lsls	r1, r1, #12
 80016ca:	430a      	orrs	r2, r1
 80016cc:	601a      	str	r2, [r3, #0]
	SET_BIT(RCC->CR, RCC_CR_PLLON); // PLL
 80016ce:	4b14      	ldr	r3, [pc, #80]	; (8001720 <init_rcc+0xd4>)
 80016d0:	681a      	ldr	r2, [r3, #0]
 80016d2:	4b13      	ldr	r3, [pc, #76]	; (8001720 <init_rcc+0xd4>)
 80016d4:	2180      	movs	r1, #128	; 0x80
 80016d6:	0449      	lsls	r1, r1, #17
 80016d8:	430a      	orrs	r2, r1
 80016da:	601a      	str	r2, [r3, #0]
	while (READ_BIT(RCC->CR, RCC_CR_PLLRDY) == 0); //    PLL
 80016dc:	46c0      	nop			; (mov r8, r8)
 80016de:	4b10      	ldr	r3, [pc, #64]	; (8001720 <init_rcc+0xd4>)
 80016e0:	681a      	ldr	r2, [r3, #0]
 80016e2:	2380      	movs	r3, #128	; 0x80
 80016e4:	049b      	lsls	r3, r3, #18
 80016e6:	4013      	ands	r3, r2
 80016e8:	d0f9      	beq.n	80016de <init_rcc+0x92>
	MODIFY_REG(RCC->CFGR, RCC_CFGR_SW, RCC_CFGR_SW_PLL); // PLL   System Clock
 80016ea:	4b0d      	ldr	r3, [pc, #52]	; (8001720 <init_rcc+0xd4>)
 80016ec:	685b      	ldr	r3, [r3, #4]
 80016ee:	2203      	movs	r2, #3
 80016f0:	4393      	bics	r3, r2
 80016f2:	001a      	movs	r2, r3
 80016f4:	4b0a      	ldr	r3, [pc, #40]	; (8001720 <init_rcc+0xd4>)
 80016f6:	2102      	movs	r1, #2
 80016f8:	430a      	orrs	r2, r1
 80016fa:	605a      	str	r2, [r3, #4]

	SET_BIT(RCC->AHBENR, RCC_AHBENR_GPIOAEN); //   
 80016fc:	4b08      	ldr	r3, [pc, #32]	; (8001720 <init_rcc+0xd4>)
 80016fe:	695a      	ldr	r2, [r3, #20]
 8001700:	4b07      	ldr	r3, [pc, #28]	; (8001720 <init_rcc+0xd4>)
 8001702:	2180      	movs	r1, #128	; 0x80
 8001704:	0289      	lsls	r1, r1, #10
 8001706:	430a      	orrs	r2, r1
 8001708:	615a      	str	r2, [r3, #20]
	SET_BIT(RCC->AHBENR, RCC_AHBENR_GPIOBEN); //   
 800170a:	4b05      	ldr	r3, [pc, #20]	; (8001720 <init_rcc+0xd4>)
 800170c:	695a      	ldr	r2, [r3, #20]
 800170e:	4b04      	ldr	r3, [pc, #16]	; (8001720 <init_rcc+0xd4>)
 8001710:	2180      	movs	r1, #128	; 0x80
 8001712:	02c9      	lsls	r1, r1, #11
 8001714:	430a      	orrs	r2, r1
 8001716:	615a      	str	r2, [r3, #20]

}
 8001718:	46c0      	nop			; (mov r8, r8)
 800171a:	46bd      	mov	sp, r7
 800171c:	bd80      	pop	{r7, pc}
 800171e:	46c0      	nop			; (mov r8, r8)
 8001720:	40021000 	.word	0x40021000
 8001724:	40022000 	.word	0x40022000
 8001728:	ffc3ffff 	.word	0xffc3ffff
 800172c:	fffff8ff 	.word	0xfffff8ff
 8001730:	fffe7fff 	.word	0xfffe7fff

08001734 <init_wdt>:

void init_wdt(void) {
 8001734:	b580      	push	{r7, lr}
 8001736:	af00      	add	r7, sp, #0
#ifndef DEBUG_MODE
	WRITE_REG(IWDG->KR, 0x5555);              //     IWDG
 8001738:	4b0b      	ldr	r3, [pc, #44]	; (8001768 <init_wdt+0x34>)
 800173a:	4a0c      	ldr	r2, [pc, #48]	; (800176c <init_wdt+0x38>)
 800173c:	601a      	str	r2, [r3, #0]
	WRITE_REG(IWDG->PR, 0x111);               //  
 800173e:	4b0a      	ldr	r3, [pc, #40]	; (8001768 <init_wdt+0x34>)
 8001740:	2212      	movs	r2, #18
 8001742:	32ff      	adds	r2, #255	; 0xff
 8001744:	605a      	str	r2, [r3, #4]
	WRITE_REG(IWDG->RLR, 0xFFF);              //    
 8001746:	4b08      	ldr	r3, [pc, #32]	; (8001768 <init_wdt+0x34>)
 8001748:	4a09      	ldr	r2, [pc, #36]	; (8001770 <init_wdt+0x3c>)
 800174a:	609a      	str	r2, [r3, #8]
	WRITE_REG(IWDG->KR, 0xCCCC);              //   
 800174c:	4b06      	ldr	r3, [pc, #24]	; (8001768 <init_wdt+0x34>)
 800174e:	4a09      	ldr	r2, [pc, #36]	; (8001774 <init_wdt+0x40>)
 8001750:	601a      	str	r2, [r3, #0]
	while (IWDG->SR);                         //  
 8001752:	46c0      	nop			; (mov r8, r8)
 8001754:	4b04      	ldr	r3, [pc, #16]	; (8001768 <init_wdt+0x34>)
 8001756:	68db      	ldr	r3, [r3, #12]
 8001758:	2b00      	cmp	r3, #0
 800175a:	d1fb      	bne.n	8001754 <init_wdt+0x20>
	WRITE_REG(IWDG->KR, 0xAAAA);              //   
 800175c:	4b02      	ldr	r3, [pc, #8]	; (8001768 <init_wdt+0x34>)
 800175e:	4a06      	ldr	r2, [pc, #24]	; (8001778 <init_wdt+0x44>)
 8001760:	601a      	str	r2, [r3, #0]
#endif
}
 8001762:	46c0      	nop			; (mov r8, r8)
 8001764:	46bd      	mov	sp, r7
 8001766:	bd80      	pop	{r7, pc}
 8001768:	40003000 	.word	0x40003000
 800176c:	00005555 	.word	0x00005555
 8001770:	00000fff 	.word	0x00000fff
 8001774:	0000cccc 	.word	0x0000cccc
 8001778:	0000aaaa 	.word	0x0000aaaa

0800177c <iwdt_reset>:

void iwdt_reset(void) {
 800177c:	b580      	push	{r7, lr}
 800177e:	af00      	add	r7, sp, #0
	WRITE_REG(IWDG->KR, 0xAAAA);              //   
 8001780:	4b02      	ldr	r3, [pc, #8]	; (800178c <iwdt_reset+0x10>)
 8001782:	4a03      	ldr	r2, [pc, #12]	; (8001790 <iwdt_reset+0x14>)
 8001784:	601a      	str	r2, [r3, #0]
}
 8001786:	46c0      	nop			; (mov r8, r8)
 8001788:	46bd      	mov	sp, r7
 800178a:	bd80      	pop	{r7, pc}
 800178c:	40003000 	.word	0x40003000
 8001790:	0000aaaa 	.word	0x0000aaaa

08001794 <CMSIS_SysTick_Timer_init>:

void CMSIS_SysTick_Timer_init(void) {
 8001794:	b580      	push	{r7, lr}
 8001796:	af00      	add	r7, sp, #0
	/* . 4.5.1 SysTick control and status register (STK_CTRL) (. 151)*/
	CLEAR_BIT(SysTick->CTRL, SysTick_CTRL_ENABLE_Msk); //    .
 8001798:	4b15      	ldr	r3, [pc, #84]	; (80017f0 <CMSIS_SysTick_Timer_init+0x5c>)
 800179a:	681a      	ldr	r2, [r3, #0]
 800179c:	4b14      	ldr	r3, [pc, #80]	; (80017f0 <CMSIS_SysTick_Timer_init+0x5c>)
 800179e:	2101      	movs	r1, #1
 80017a0:	438a      	bics	r2, r1
 80017a2:	601a      	str	r2, [r3, #0]
	SET_BIT(SysTick->CTRL, SysTick_CTRL_TICKINT_Msk); //   
 80017a4:	4b12      	ldr	r3, [pc, #72]	; (80017f0 <CMSIS_SysTick_Timer_init+0x5c>)
 80017a6:	681a      	ldr	r2, [r3, #0]
 80017a8:	4b11      	ldr	r3, [pc, #68]	; (80017f0 <CMSIS_SysTick_Timer_init+0x5c>)
 80017aa:	2102      	movs	r1, #2
 80017ac:	430a      	orrs	r2, r1
 80017ae:	601a      	str	r2, [r3, #0]
	SET_BIT(SysTick->CTRL, SysTick_CTRL_CLKSOURCE_Msk); //  .  48MHz
 80017b0:	4b0f      	ldr	r3, [pc, #60]	; (80017f0 <CMSIS_SysTick_Timer_init+0x5c>)
 80017b2:	681a      	ldr	r2, [r3, #0]
 80017b4:	4b0e      	ldr	r3, [pc, #56]	; (80017f0 <CMSIS_SysTick_Timer_init+0x5c>)
 80017b6:	2104      	movs	r1, #4
 80017b8:	430a      	orrs	r2, r1
 80017ba:	601a      	str	r2, [r3, #0]
	MODIFY_REG(SysTick->LOAD, SysTick_LOAD_RELOAD_Msk,
 80017bc:	4b0c      	ldr	r3, [pc, #48]	; (80017f0 <CMSIS_SysTick_Timer_init+0x5c>)
 80017be:	685b      	ldr	r3, [r3, #4]
 80017c0:	0e1b      	lsrs	r3, r3, #24
 80017c2:	061a      	lsls	r2, r3, #24
 80017c4:	4b0a      	ldr	r3, [pc, #40]	; (80017f0 <CMSIS_SysTick_Timer_init+0x5c>)
 80017c6:	490b      	ldr	r1, [pc, #44]	; (80017f4 <CMSIS_SysTick_Timer_init+0x60>)
 80017c8:	430a      	orrs	r2, r1
 80017ca:	605a      	str	r2, [r3, #4]
			47999 << SysTick_LOAD_RELOAD_Pos); //     1 (..    )
	MODIFY_REG(SysTick->VAL, SysTick_VAL_CURRENT_Msk,
 80017cc:	4b08      	ldr	r3, [pc, #32]	; (80017f0 <CMSIS_SysTick_Timer_init+0x5c>)
 80017ce:	689b      	ldr	r3, [r3, #8]
 80017d0:	0e1b      	lsrs	r3, r3, #24
 80017d2:	061a      	lsls	r2, r3, #24
 80017d4:	4b06      	ldr	r3, [pc, #24]	; (80017f0 <CMSIS_SysTick_Timer_init+0x5c>)
 80017d6:	4907      	ldr	r1, [pc, #28]	; (80017f4 <CMSIS_SysTick_Timer_init+0x60>)
 80017d8:	430a      	orrs	r2, r1
 80017da:	609a      	str	r2, [r3, #8]
			47999 << SysTick_VAL_CURRENT_Pos); //   47999
	SET_BIT(SysTick->CTRL, SysTick_CTRL_ENABLE_Msk); // 
 80017dc:	4b04      	ldr	r3, [pc, #16]	; (80017f0 <CMSIS_SysTick_Timer_init+0x5c>)
 80017de:	681a      	ldr	r2, [r3, #0]
 80017e0:	4b03      	ldr	r3, [pc, #12]	; (80017f0 <CMSIS_SysTick_Timer_init+0x5c>)
 80017e2:	2101      	movs	r1, #1
 80017e4:	430a      	orrs	r2, r1
 80017e6:	601a      	str	r2, [r3, #0]
}
 80017e8:	46c0      	nop			; (mov r8, r8)
 80017ea:	46bd      	mov	sp, r7
 80017ec:	bd80      	pop	{r7, pc}
 80017ee:	46c0      	nop			; (mov r8, r8)
 80017f0:	e000e010 	.word	0xe000e010
 80017f4:	0000bb7f 	.word	0x0000bb7f

080017f8 <SysTick_Handler>:

void SysTick_Handler(void) {
 80017f8:	b580      	push	{r7, lr}
 80017fa:	af00      	add	r7, sp, #0
	SysTimer_ms++;
 80017fc:	4b52      	ldr	r3, [pc, #328]	; (8001948 <SysTick_Handler+0x150>)
 80017fe:	681b      	ldr	r3, [r3, #0]
 8001800:	1c5a      	adds	r2, r3, #1
 8001802:	4b51      	ldr	r3, [pc, #324]	; (8001948 <SysTick_Handler+0x150>)
 8001804:	601a      	str	r2, [r3, #0]
	if (Delay_counter_ms) {
 8001806:	4b51      	ldr	r3, [pc, #324]	; (800194c <SysTick_Handler+0x154>)
 8001808:	681b      	ldr	r3, [r3, #0]
 800180a:	2b00      	cmp	r3, #0
 800180c:	d004      	beq.n	8001818 <SysTick_Handler+0x20>
		Delay_counter_ms--;
 800180e:	4b4f      	ldr	r3, [pc, #316]	; (800194c <SysTick_Handler+0x154>)
 8001810:	681b      	ldr	r3, [r3, #0]
 8001812:	1e5a      	subs	r2, r3, #1
 8001814:	4b4d      	ldr	r3, [pc, #308]	; (800194c <SysTick_Handler+0x154>)
 8001816:	601a      	str	r2, [r3, #0]
	}

	if (counter_ms < 20)
 8001818:	4b4d      	ldr	r3, [pc, #308]	; (8001950 <SysTick_Handler+0x158>)
 800181a:	681b      	ldr	r3, [r3, #0]
 800181c:	2b13      	cmp	r3, #19
 800181e:	d805      	bhi.n	800182c <SysTick_Handler+0x34>
		counter_ms++;
 8001820:	4b4b      	ldr	r3, [pc, #300]	; (8001950 <SysTick_Handler+0x158>)
 8001822:	681b      	ldr	r3, [r3, #0]
 8001824:	1c5a      	adds	r2, r3, #1
 8001826:	4b4a      	ldr	r3, [pc, #296]	; (8001950 <SysTick_Handler+0x158>)
 8001828:	601a      	str	r2, [r3, #0]
 800182a:	e008      	b.n	800183e <SysTick_Handler+0x46>
	else {
		point_flags->pid_ok = TRUE;
 800182c:	4b49      	ldr	r3, [pc, #292]	; (8001954 <SysTick_Handler+0x15c>)
 800182e:	681b      	ldr	r3, [r3, #0]
 8001830:	789a      	ldrb	r2, [r3, #2]
 8001832:	2110      	movs	r1, #16
 8001834:	430a      	orrs	r2, r1
 8001836:	709a      	strb	r2, [r3, #2]
		counter_ms = 0;
 8001838:	4b45      	ldr	r3, [pc, #276]	; (8001950 <SysTick_Handler+0x158>)
 800183a:	2200      	movs	r2, #0
 800183c:	601a      	str	r2, [r3, #0]
	}

	if (point_flags->iwdt_res) {
 800183e:	4b45      	ldr	r3, [pc, #276]	; (8001954 <SysTick_Handler+0x15c>)
 8001840:	681b      	ldr	r3, [r3, #0]
 8001842:	789b      	ldrb	r3, [r3, #2]
 8001844:	2208      	movs	r2, #8
 8001846:	4013      	ands	r3, r2
 8001848:	b2db      	uxtb	r3, r3
 800184a:	2b00      	cmp	r3, #0
 800184c:	d002      	beq.n	8001854 <SysTick_Handler+0x5c>
		WRITE_REG(IWDG->KR, 0xAAAA);        //   
 800184e:	4b42      	ldr	r3, [pc, #264]	; (8001958 <SysTick_Handler+0x160>)
 8001850:	4a42      	ldr	r2, [pc, #264]	; (800195c <SysTick_Handler+0x164>)
 8001852:	601a      	str	r2, [r3, #0]
	}

	if (point_flags->delay > 0) { //        
 8001854:	4b3f      	ldr	r3, [pc, #252]	; (8001954 <SysTick_Handler+0x15c>)
 8001856:	681b      	ldr	r3, [r3, #0]
 8001858:	681a      	ldr	r2, [r3, #0]
 800185a:	23f0      	movs	r3, #240	; 0xf0
 800185c:	025b      	lsls	r3, r3, #9
 800185e:	4013      	ands	r3, r2
 8001860:	d06f      	beq.n	8001942 <SysTick_Handler+0x14a>
		if (point_flags->delay == 5) {
 8001862:	4b3c      	ldr	r3, [pc, #240]	; (8001954 <SysTick_Handler+0x15c>)
 8001864:	681b      	ldr	r3, [r3, #0]
 8001866:	681a      	ldr	r2, [r3, #0]
 8001868:	23f0      	movs	r3, #240	; 0xf0
 800186a:	025b      	lsls	r3, r3, #9
 800186c:	401a      	ands	r2, r3
 800186e:	23a0      	movs	r3, #160	; 0xa0
 8001870:	021b      	lsls	r3, r3, #8
 8001872:	429a      	cmp	r2, r3
 8001874:	d108      	bne.n	8001888 <SysTick_Handler+0x90>
			STEP3_OFF;
 8001876:	2390      	movs	r3, #144	; 0x90
 8001878:	05db      	lsls	r3, r3, #23
 800187a:	699a      	ldr	r2, [r3, #24]
 800187c:	2390      	movs	r3, #144	; 0x90
 800187e:	05db      	lsls	r3, r3, #23
 8001880:	2180      	movs	r1, #128	; 0x80
 8001882:	0409      	lsls	r1, r1, #16
 8001884:	430a      	orrs	r2, r1
 8001886:	619a      	str	r2, [r3, #24]
		}
		if (point_flags->delay == 4) {
 8001888:	4b32      	ldr	r3, [pc, #200]	; (8001954 <SysTick_Handler+0x15c>)
 800188a:	681b      	ldr	r3, [r3, #0]
 800188c:	681a      	ldr	r2, [r3, #0]
 800188e:	23f0      	movs	r3, #240	; 0xf0
 8001890:	025b      	lsls	r3, r3, #9
 8001892:	401a      	ands	r2, r3
 8001894:	2380      	movs	r3, #128	; 0x80
 8001896:	021b      	lsls	r3, r3, #8
 8001898:	429a      	cmp	r2, r3
 800189a:	d107      	bne.n	80018ac <SysTick_Handler+0xb4>
			STEP3_ON;
 800189c:	2390      	movs	r3, #144	; 0x90
 800189e:	05db      	lsls	r3, r3, #23
 80018a0:	699a      	ldr	r2, [r3, #24]
 80018a2:	2390      	movs	r3, #144	; 0x90
 80018a4:	05db      	lsls	r3, r3, #23
 80018a6:	2180      	movs	r1, #128	; 0x80
 80018a8:	430a      	orrs	r2, r1
 80018aa:	619a      	str	r2, [r3, #24]
		}
		if (point_flags->delay == 3) { // 5  3 , 3  2 , 1  1 
 80018ac:	4b29      	ldr	r3, [pc, #164]	; (8001954 <SysTick_Handler+0x15c>)
 80018ae:	681b      	ldr	r3, [r3, #0]
 80018b0:	681a      	ldr	r2, [r3, #0]
 80018b2:	23f0      	movs	r3, #240	; 0xf0
 80018b4:	025b      	lsls	r3, r3, #9
 80018b6:	401a      	ands	r2, r3
 80018b8:	23c0      	movs	r3, #192	; 0xc0
 80018ba:	01db      	lsls	r3, r3, #7
 80018bc:	429a      	cmp	r2, r3
 80018be:	d108      	bne.n	80018d2 <SysTick_Handler+0xda>
			STEP3_OFF;
 80018c0:	2390      	movs	r3, #144	; 0x90
 80018c2:	05db      	lsls	r3, r3, #23
 80018c4:	699a      	ldr	r2, [r3, #24]
 80018c6:	2390      	movs	r3, #144	; 0x90
 80018c8:	05db      	lsls	r3, r3, #23
 80018ca:	2180      	movs	r1, #128	; 0x80
 80018cc:	0409      	lsls	r1, r1, #16
 80018ce:	430a      	orrs	r2, r1
 80018d0:	619a      	str	r2, [r3, #24]
		}
		if (point_flags->delay == 2) {
 80018d2:	4b20      	ldr	r3, [pc, #128]	; (8001954 <SysTick_Handler+0x15c>)
 80018d4:	681b      	ldr	r3, [r3, #0]
 80018d6:	681a      	ldr	r2, [r3, #0]
 80018d8:	23f0      	movs	r3, #240	; 0xf0
 80018da:	025b      	lsls	r3, r3, #9
 80018dc:	401a      	ands	r2, r3
 80018de:	2380      	movs	r3, #128	; 0x80
 80018e0:	01db      	lsls	r3, r3, #7
 80018e2:	429a      	cmp	r2, r3
 80018e4:	d107      	bne.n	80018f6 <SysTick_Handler+0xfe>
			STEP3_ON;
 80018e6:	2390      	movs	r3, #144	; 0x90
 80018e8:	05db      	lsls	r3, r3, #23
 80018ea:	699a      	ldr	r2, [r3, #24]
 80018ec:	2390      	movs	r3, #144	; 0x90
 80018ee:	05db      	lsls	r3, r3, #23
 80018f0:	2180      	movs	r1, #128	; 0x80
 80018f2:	430a      	orrs	r2, r1
 80018f4:	619a      	str	r2, [r3, #24]
		}
		if (point_flags->delay == 1) {
 80018f6:	4b17      	ldr	r3, [pc, #92]	; (8001954 <SysTick_Handler+0x15c>)
 80018f8:	681b      	ldr	r3, [r3, #0]
 80018fa:	681a      	ldr	r2, [r3, #0]
 80018fc:	23f0      	movs	r3, #240	; 0xf0
 80018fe:	025b      	lsls	r3, r3, #9
 8001900:	401a      	ands	r2, r3
 8001902:	2380      	movs	r3, #128	; 0x80
 8001904:	019b      	lsls	r3, r3, #6
 8001906:	429a      	cmp	r2, r3
 8001908:	d108      	bne.n	800191c <SysTick_Handler+0x124>
			STEP3_OFF;
 800190a:	2390      	movs	r3, #144	; 0x90
 800190c:	05db      	lsls	r3, r3, #23
 800190e:	699a      	ldr	r2, [r3, #24]
 8001910:	2390      	movs	r3, #144	; 0x90
 8001912:	05db      	lsls	r3, r3, #23
 8001914:	2180      	movs	r1, #128	; 0x80
 8001916:	0409      	lsls	r1, r1, #16
 8001918:	430a      	orrs	r2, r1
 800191a:	619a      	str	r2, [r3, #24]
		}
		point_flags->delay--;
 800191c:	4b0d      	ldr	r3, [pc, #52]	; (8001954 <SysTick_Handler+0x15c>)
 800191e:	681b      	ldr	r3, [r3, #0]
 8001920:	681a      	ldr	r2, [r3, #0]
 8001922:	03d2      	lsls	r2, r2, #15
 8001924:	0f12      	lsrs	r2, r2, #28
 8001926:	b2d2      	uxtb	r2, r2
 8001928:	320f      	adds	r2, #15
 800192a:	1c11      	adds	r1, r2, #0
 800192c:	220f      	movs	r2, #15
 800192e:	400a      	ands	r2, r1
 8001930:	b2d2      	uxtb	r2, r2
 8001932:	210f      	movs	r1, #15
 8001934:	400a      	ands	r2, r1
 8001936:	0352      	lsls	r2, r2, #13
 8001938:	6819      	ldr	r1, [r3, #0]
 800193a:	4809      	ldr	r0, [pc, #36]	; (8001960 <SysTick_Handler+0x168>)
 800193c:	4001      	ands	r1, r0
 800193e:	430a      	orrs	r2, r1
 8001940:	601a      	str	r2, [r3, #0]
	}
}
 8001942:	46c0      	nop			; (mov r8, r8)
 8001944:	46bd      	mov	sp, r7
 8001946:	bd80      	pop	{r7, pc}
 8001948:	20000040 	.word	0x20000040
 800194c:	20000044 	.word	0x20000044
 8001950:	20000048 	.word	0x20000048
 8001954:	20000000 	.word	0x20000000
 8001958:	40003000 	.word	0x40003000
 800195c:	0000aaaa 	.word	0x0000aaaa
 8001960:	fffe1fff 	.word	0xfffe1fff

08001964 <Delay_ms>:

void Delay_ms(uint32_t Milliseconds) {
 8001964:	b580      	push	{r7, lr}
 8001966:	b082      	sub	sp, #8
 8001968:	af00      	add	r7, sp, #0
 800196a:	6078      	str	r0, [r7, #4]
	Delay_counter_ms = Milliseconds;
 800196c:	4b06      	ldr	r3, [pc, #24]	; (8001988 <Delay_ms+0x24>)
 800196e:	687a      	ldr	r2, [r7, #4]
 8001970:	601a      	str	r2, [r3, #0]
	while (Delay_counter_ms != 0)
 8001972:	46c0      	nop			; (mov r8, r8)
 8001974:	4b04      	ldr	r3, [pc, #16]	; (8001988 <Delay_ms+0x24>)
 8001976:	681b      	ldr	r3, [r3, #0]
 8001978:	2b00      	cmp	r3, #0
 800197a:	d1fb      	bne.n	8001974 <Delay_ms+0x10>
		;
}
 800197c:	46c0      	nop			; (mov r8, r8)
 800197e:	46c0      	nop			; (mov r8, r8)
 8001980:	46bd      	mov	sp, r7
 8001982:	b002      	add	sp, #8
 8001984:	bd80      	pop	{r7, pc}
 8001986:	46c0      	nop			; (mov r8, r8)
 8001988:	20000044 	.word	0x20000044

0800198c <init_tim3>:

void init_tim3(void) {
 800198c:	b580      	push	{r7, lr}
 800198e:	af00      	add	r7, sp, #0
	SET_BIT(RCC->APB1ENR, RCC_APB1ENR_TIM3EN);   //  
 8001990:	4b21      	ldr	r3, [pc, #132]	; (8001a18 <init_tim3+0x8c>)
 8001992:	69da      	ldr	r2, [r3, #28]
 8001994:	4b20      	ldr	r3, [pc, #128]	; (8001a18 <init_tim3+0x8c>)
 8001996:	2102      	movs	r1, #2
 8001998:	430a      	orrs	r2, r1
 800199a:	61da      	str	r2, [r3, #28]
	SET_BIT(GPIOA->MODER, GPIO_MODER_MODER6_1);        //  
 800199c:	2390      	movs	r3, #144	; 0x90
 800199e:	05db      	lsls	r3, r3, #23
 80019a0:	681a      	ldr	r2, [r3, #0]
 80019a2:	2390      	movs	r3, #144	; 0x90
 80019a4:	05db      	lsls	r3, r3, #23
 80019a6:	2180      	movs	r1, #128	; 0x80
 80019a8:	0189      	lsls	r1, r1, #6
 80019aa:	430a      	orrs	r2, r1
 80019ac:	601a      	str	r2, [r3, #0]
	SET_BIT(GPIOA->AFR[0], 1 << GPIO_AFRL_AFRL6_Pos);      // TIM3
 80019ae:	2390      	movs	r3, #144	; 0x90
 80019b0:	05db      	lsls	r3, r3, #23
 80019b2:	6a1a      	ldr	r2, [r3, #32]
 80019b4:	2390      	movs	r3, #144	; 0x90
 80019b6:	05db      	lsls	r3, r3, #23
 80019b8:	2180      	movs	r1, #128	; 0x80
 80019ba:	0449      	lsls	r1, r1, #17
 80019bc:	430a      	orrs	r2, r1
 80019be:	621a      	str	r2, [r3, #32]
	TIM3->PSC = 0;
 80019c0:	4b16      	ldr	r3, [pc, #88]	; (8001a1c <init_tim3+0x90>)
 80019c2:	2200      	movs	r2, #0
 80019c4:	629a      	str	r2, [r3, #40]	; 0x28
	TIM3->ARR = 600;
 80019c6:	4b15      	ldr	r3, [pc, #84]	; (8001a1c <init_tim3+0x90>)
 80019c8:	2296      	movs	r2, #150	; 0x96
 80019ca:	0092      	lsls	r2, r2, #2
 80019cc:	62da      	str	r2, [r3, #44]	; 0x2c
	TIM3->CCR1 = 200;
 80019ce:	4b13      	ldr	r3, [pc, #76]	; (8001a1c <init_tim3+0x90>)
 80019d0:	22c8      	movs	r2, #200	; 0xc8
 80019d2:	635a      	str	r2, [r3, #52]	; 0x34
	SET_BIT(TIM3->CR1, TIM_CR1_ARPE);    //   
 80019d4:	4b11      	ldr	r3, [pc, #68]	; (8001a1c <init_tim3+0x90>)
 80019d6:	681a      	ldr	r2, [r3, #0]
 80019d8:	4b10      	ldr	r3, [pc, #64]	; (8001a1c <init_tim3+0x90>)
 80019da:	2180      	movs	r1, #128	; 0x80
 80019dc:	430a      	orrs	r2, r1
 80019de:	601a      	str	r2, [r3, #0]
	SET_BIT(TIM3->CCMR1, TIM_CCMR1_OC1PE); //      
 80019e0:	4b0e      	ldr	r3, [pc, #56]	; (8001a1c <init_tim3+0x90>)
 80019e2:	699a      	ldr	r2, [r3, #24]
 80019e4:	4b0d      	ldr	r3, [pc, #52]	; (8001a1c <init_tim3+0x90>)
 80019e6:	2108      	movs	r1, #8
 80019e8:	430a      	orrs	r2, r1
 80019ea:	619a      	str	r2, [r3, #24]
	SET_BIT(TIM3->CCMR1, 0b110 << TIM_CCMR1_OC1M_Pos); //   1 ( )
 80019ec:	4b0b      	ldr	r3, [pc, #44]	; (8001a1c <init_tim3+0x90>)
 80019ee:	699a      	ldr	r2, [r3, #24]
 80019f0:	4b0a      	ldr	r3, [pc, #40]	; (8001a1c <init_tim3+0x90>)
 80019f2:	2160      	movs	r1, #96	; 0x60
 80019f4:	430a      	orrs	r2, r1
 80019f6:	619a      	str	r2, [r3, #24]
	SET_BIT(TIM3->CCER, TIM_CCER_CC1E);           //  1  .
 80019f8:	4b08      	ldr	r3, [pc, #32]	; (8001a1c <init_tim3+0x90>)
 80019fa:	6a1a      	ldr	r2, [r3, #32]
 80019fc:	4b07      	ldr	r3, [pc, #28]	; (8001a1c <init_tim3+0x90>)
 80019fe:	2101      	movs	r1, #1
 8001a00:	430a      	orrs	r2, r1
 8001a02:	621a      	str	r2, [r3, #32]
	SET_BIT(TIM3->CR1, TIM_CR1_CEN);                       //  
 8001a04:	4b05      	ldr	r3, [pc, #20]	; (8001a1c <init_tim3+0x90>)
 8001a06:	681a      	ldr	r2, [r3, #0]
 8001a08:	4b04      	ldr	r3, [pc, #16]	; (8001a1c <init_tim3+0x90>)
 8001a0a:	2101      	movs	r1, #1
 8001a0c:	430a      	orrs	r2, r1
 8001a0e:	601a      	str	r2, [r3, #0]
}
 8001a10:	46c0      	nop			; (mov r8, r8)
 8001a12:	46bd      	mov	sp, r7
 8001a14:	bd80      	pop	{r7, pc}
 8001a16:	46c0      	nop			; (mov r8, r8)
 8001a18:	40021000 	.word	0x40021000
 8001a1c:	40000400 	.word	0x40000400

08001a20 <init_tim17>:

void init_tim17(uint16_t prescaler, uint16_t reload) {
 8001a20:	b580      	push	{r7, lr}
 8001a22:	b082      	sub	sp, #8
 8001a24:	af00      	add	r7, sp, #0
 8001a26:	0002      	movs	r2, r0
 8001a28:	1dbb      	adds	r3, r7, #6
 8001a2a:	801a      	strh	r2, [r3, #0]
 8001a2c:	1d3b      	adds	r3, r7, #4
 8001a2e:	1c0a      	adds	r2, r1, #0
 8001a30:	801a      	strh	r2, [r3, #0]
	SET_BIT(RCC->APB2ENR, RCC_APB2ENR_TIM17EN);   //  
 8001a32:	4b16      	ldr	r3, [pc, #88]	; (8001a8c <init_tim17+0x6c>)
 8001a34:	699a      	ldr	r2, [r3, #24]
 8001a36:	4b15      	ldr	r3, [pc, #84]	; (8001a8c <init_tim17+0x6c>)
 8001a38:	2180      	movs	r1, #128	; 0x80
 8001a3a:	02c9      	lsls	r1, r1, #11
 8001a3c:	430a      	orrs	r2, r1
 8001a3e:	619a      	str	r2, [r3, #24]
	TIM17->PSC = prescaler - 1;
 8001a40:	1dbb      	adds	r3, r7, #6
 8001a42:	881b      	ldrh	r3, [r3, #0]
 8001a44:	1e5a      	subs	r2, r3, #1
 8001a46:	4b12      	ldr	r3, [pc, #72]	; (8001a90 <init_tim17+0x70>)
 8001a48:	629a      	str	r2, [r3, #40]	; 0x28
	TIM17->ARR = reload;
 8001a4a:	4b11      	ldr	r3, [pc, #68]	; (8001a90 <init_tim17+0x70>)
 8001a4c:	1d3a      	adds	r2, r7, #4
 8001a4e:	8812      	ldrh	r2, [r2, #0]
 8001a50:	62da      	str	r2, [r3, #44]	; 0x2c
	SET_BIT(TIM17->CR1, TIM_CR1_ARPE);   //   
 8001a52:	4b0f      	ldr	r3, [pc, #60]	; (8001a90 <init_tim17+0x70>)
 8001a54:	681a      	ldr	r2, [r3, #0]
 8001a56:	4b0e      	ldr	r3, [pc, #56]	; (8001a90 <init_tim17+0x70>)
 8001a58:	2180      	movs	r1, #128	; 0x80
 8001a5a:	430a      	orrs	r2, r1
 8001a5c:	601a      	str	r2, [r3, #0]
	SET_BIT(TIM17->CR1, TIM_CR1_CEN);             //  
 8001a5e:	4b0c      	ldr	r3, [pc, #48]	; (8001a90 <init_tim17+0x70>)
 8001a60:	681a      	ldr	r2, [r3, #0]
 8001a62:	4b0b      	ldr	r3, [pc, #44]	; (8001a90 <init_tim17+0x70>)
 8001a64:	2101      	movs	r1, #1
 8001a66:	430a      	orrs	r2, r1
 8001a68:	601a      	str	r2, [r3, #0]
	SET_BIT(TIM17->DIER, TIM_DIER_UIE);      //    
 8001a6a:	4b09      	ldr	r3, [pc, #36]	; (8001a90 <init_tim17+0x70>)
 8001a6c:	68da      	ldr	r2, [r3, #12]
 8001a6e:	4b08      	ldr	r3, [pc, #32]	; (8001a90 <init_tim17+0x70>)
 8001a70:	2101      	movs	r1, #1
 8001a72:	430a      	orrs	r2, r1
 8001a74:	60da      	str	r2, [r3, #12]

	NVIC_EnableIRQ(TIM17_IRQn);
 8001a76:	2016      	movs	r0, #22
 8001a78:	f7ff fd60 	bl	800153c <__NVIC_EnableIRQ>
	NVIC_SetPriority(TIM17_IRQn, 2); //  
 8001a7c:	2102      	movs	r1, #2
 8001a7e:	2016      	movs	r0, #22
 8001a80:	f7ff fd76 	bl	8001570 <__NVIC_SetPriority>
}
 8001a84:	46c0      	nop			; (mov r8, r8)
 8001a86:	46bd      	mov	sp, r7
 8001a88:	b002      	add	sp, #8
 8001a8a:	bd80      	pop	{r7, pc}
 8001a8c:	40021000 	.word	0x40021000
 8001a90:	40014800 	.word	0x40014800

08001a94 <init_tim16>:

void init_tim16(uint16_t prescaler, uint16_t reload) {
 8001a94:	b580      	push	{r7, lr}
 8001a96:	b082      	sub	sp, #8
 8001a98:	af00      	add	r7, sp, #0
 8001a9a:	0002      	movs	r2, r0
 8001a9c:	1dbb      	adds	r3, r7, #6
 8001a9e:	801a      	strh	r2, [r3, #0]
 8001aa0:	1d3b      	adds	r3, r7, #4
 8001aa2:	1c0a      	adds	r2, r1, #0
 8001aa4:	801a      	strh	r2, [r3, #0]
	SET_BIT(RCC->APB2ENR, RCC_APB2ENR_TIM16EN);   //  
 8001aa6:	4b13      	ldr	r3, [pc, #76]	; (8001af4 <init_tim16+0x60>)
 8001aa8:	699a      	ldr	r2, [r3, #24]
 8001aaa:	4b12      	ldr	r3, [pc, #72]	; (8001af4 <init_tim16+0x60>)
 8001aac:	2180      	movs	r1, #128	; 0x80
 8001aae:	0289      	lsls	r1, r1, #10
 8001ab0:	430a      	orrs	r2, r1
 8001ab2:	619a      	str	r2, [r3, #24]
	TIM16->PSC = prescaler - 1;
 8001ab4:	1dbb      	adds	r3, r7, #6
 8001ab6:	881b      	ldrh	r3, [r3, #0]
 8001ab8:	1e5a      	subs	r2, r3, #1
 8001aba:	4b0f      	ldr	r3, [pc, #60]	; (8001af8 <init_tim16+0x64>)
 8001abc:	629a      	str	r2, [r3, #40]	; 0x28
	TIM16->ARR = reload;
 8001abe:	4b0e      	ldr	r3, [pc, #56]	; (8001af8 <init_tim16+0x64>)
 8001ac0:	1d3a      	adds	r2, r7, #4
 8001ac2:	8812      	ldrh	r2, [r2, #0]
 8001ac4:	62da      	str	r2, [r3, #44]	; 0x2c
	SET_BIT(TIM16->CR1, TIM_CR1_ARPE);   //   
 8001ac6:	4b0c      	ldr	r3, [pc, #48]	; (8001af8 <init_tim16+0x64>)
 8001ac8:	681a      	ldr	r2, [r3, #0]
 8001aca:	4b0b      	ldr	r3, [pc, #44]	; (8001af8 <init_tim16+0x64>)
 8001acc:	2180      	movs	r1, #128	; 0x80
 8001ace:	430a      	orrs	r2, r1
 8001ad0:	601a      	str	r2, [r3, #0]
	SET_BIT(TIM16->CR1, TIM_CR1_CEN);             //  
 8001ad2:	4b09      	ldr	r3, [pc, #36]	; (8001af8 <init_tim16+0x64>)
 8001ad4:	681a      	ldr	r2, [r3, #0]
 8001ad6:	4b08      	ldr	r3, [pc, #32]	; (8001af8 <init_tim16+0x64>)
 8001ad8:	2101      	movs	r1, #1
 8001ada:	430a      	orrs	r2, r1
 8001adc:	601a      	str	r2, [r3, #0]
	//SET_BIT(TIM16->DIER, TIM_DIER_UIE);      //    

	NVIC_EnableIRQ(TIM16_IRQn);
 8001ade:	2015      	movs	r0, #21
 8001ae0:	f7ff fd2c 	bl	800153c <__NVIC_EnableIRQ>
	NVIC_SetPriority(TIM16_IRQn, 2); //  
 8001ae4:	2102      	movs	r1, #2
 8001ae6:	2015      	movs	r0, #21
 8001ae8:	f7ff fd42 	bl	8001570 <__NVIC_SetPriority>
}
 8001aec:	46c0      	nop			; (mov r8, r8)
 8001aee:	46bd      	mov	sp, r7
 8001af0:	b002      	add	sp, #8
 8001af2:	bd80      	pop	{r7, pc}
 8001af4:	40021000 	.word	0x40021000
 8001af8:	40014400 	.word	0x40014400

08001afc <init_pins>:

void init_pins(void) {
 8001afc:	b580      	push	{r7, lr}
 8001afe:	af00      	add	r7, sp, #0

	SET_BIT(GPIOA->MODER, GPIO_MODER_MODER0_0);  //   0
 8001b00:	2390      	movs	r3, #144	; 0x90
 8001b02:	05db      	lsls	r3, r3, #23
 8001b04:	681a      	ldr	r2, [r3, #0]
 8001b06:	2390      	movs	r3, #144	; 0x90
 8001b08:	05db      	lsls	r3, r3, #23
 8001b0a:	2101      	movs	r1, #1
 8001b0c:	430a      	orrs	r2, r1
 8001b0e:	601a      	str	r2, [r3, #0]
	SET_BIT(GPIOA->OSPEEDR, GPIO_OSPEEDR_OSPEEDR0);     //  
 8001b10:	2390      	movs	r3, #144	; 0x90
 8001b12:	05db      	lsls	r3, r3, #23
 8001b14:	689a      	ldr	r2, [r3, #8]
 8001b16:	2390      	movs	r3, #144	; 0x90
 8001b18:	05db      	lsls	r3, r3, #23
 8001b1a:	2103      	movs	r1, #3
 8001b1c:	430a      	orrs	r2, r1
 8001b1e:	609a      	str	r2, [r3, #8]

	SET_BIT(GPIOA->MODER, GPIO_MODER_MODER1_0);  //   1
 8001b20:	2390      	movs	r3, #144	; 0x90
 8001b22:	05db      	lsls	r3, r3, #23
 8001b24:	681a      	ldr	r2, [r3, #0]
 8001b26:	2390      	movs	r3, #144	; 0x90
 8001b28:	05db      	lsls	r3, r3, #23
 8001b2a:	2104      	movs	r1, #4
 8001b2c:	430a      	orrs	r2, r1
 8001b2e:	601a      	str	r2, [r3, #0]
	SET_BIT(GPIOA->OSPEEDR, GPIO_OSPEEDR_OSPEEDR1);     //  
 8001b30:	2390      	movs	r3, #144	; 0x90
 8001b32:	05db      	lsls	r3, r3, #23
 8001b34:	689a      	ldr	r2, [r3, #8]
 8001b36:	2390      	movs	r3, #144	; 0x90
 8001b38:	05db      	lsls	r3, r3, #23
 8001b3a:	210c      	movs	r1, #12
 8001b3c:	430a      	orrs	r2, r1
 8001b3e:	609a      	str	r2, [r3, #8]

	SET_BIT(GPIOA->MODER, GPIO_MODER_MODER7_0);  //   7
 8001b40:	2390      	movs	r3, #144	; 0x90
 8001b42:	05db      	lsls	r3, r3, #23
 8001b44:	681a      	ldr	r2, [r3, #0]
 8001b46:	2390      	movs	r3, #144	; 0x90
 8001b48:	05db      	lsls	r3, r3, #23
 8001b4a:	2180      	movs	r1, #128	; 0x80
 8001b4c:	01c9      	lsls	r1, r1, #7
 8001b4e:	430a      	orrs	r2, r1
 8001b50:	601a      	str	r2, [r3, #0]
	SET_BIT(GPIOA->OSPEEDR, GPIO_OSPEEDR_OSPEEDR7);     //  
 8001b52:	2390      	movs	r3, #144	; 0x90
 8001b54:	05db      	lsls	r3, r3, #23
 8001b56:	689a      	ldr	r2, [r3, #8]
 8001b58:	2390      	movs	r3, #144	; 0x90
 8001b5a:	05db      	lsls	r3, r3, #23
 8001b5c:	21c0      	movs	r1, #192	; 0xc0
 8001b5e:	0209      	lsls	r1, r1, #8
 8001b60:	430a      	orrs	r2, r1
 8001b62:	609a      	str	r2, [r3, #8]

	SET_BIT(GPIOB->MODER, GPIO_MODER_MODER1_0);  //   1
 8001b64:	4b22      	ldr	r3, [pc, #136]	; (8001bf0 <init_pins+0xf4>)
 8001b66:	681a      	ldr	r2, [r3, #0]
 8001b68:	4b21      	ldr	r3, [pc, #132]	; (8001bf0 <init_pins+0xf4>)
 8001b6a:	2104      	movs	r1, #4
 8001b6c:	430a      	orrs	r2, r1
 8001b6e:	601a      	str	r2, [r3, #0]
	SET_BIT(GPIOB->OSPEEDR, GPIO_OSPEEDR_OSPEEDR1);     //  
 8001b70:	4b1f      	ldr	r3, [pc, #124]	; (8001bf0 <init_pins+0xf4>)
 8001b72:	689a      	ldr	r2, [r3, #8]
 8001b74:	4b1e      	ldr	r3, [pc, #120]	; (8001bf0 <init_pins+0xf4>)
 8001b76:	210c      	movs	r1, #12
 8001b78:	430a      	orrs	r2, r1
 8001b7a:	609a      	str	r2, [r3, #8]

	SET_BIT(GPIOB->MODER, GPIO_MODER_MODER3_0);  //   3
 8001b7c:	4b1c      	ldr	r3, [pc, #112]	; (8001bf0 <init_pins+0xf4>)
 8001b7e:	681a      	ldr	r2, [r3, #0]
 8001b80:	4b1b      	ldr	r3, [pc, #108]	; (8001bf0 <init_pins+0xf4>)
 8001b82:	2140      	movs	r1, #64	; 0x40
 8001b84:	430a      	orrs	r2, r1
 8001b86:	601a      	str	r2, [r3, #0]
	SET_BIT(GPIOB->OSPEEDR, GPIO_OSPEEDR_OSPEEDR3);     //  
 8001b88:	4b19      	ldr	r3, [pc, #100]	; (8001bf0 <init_pins+0xf4>)
 8001b8a:	689a      	ldr	r2, [r3, #8]
 8001b8c:	4b18      	ldr	r3, [pc, #96]	; (8001bf0 <init_pins+0xf4>)
 8001b8e:	21c0      	movs	r1, #192	; 0xc0
 8001b90:	430a      	orrs	r2, r1
 8001b92:	609a      	str	r2, [r3, #8]

	SET_BIT(GPIOB->MODER, GPIO_MODER_MODER4_0);  //   4
 8001b94:	4b16      	ldr	r3, [pc, #88]	; (8001bf0 <init_pins+0xf4>)
 8001b96:	681a      	ldr	r2, [r3, #0]
 8001b98:	4b15      	ldr	r3, [pc, #84]	; (8001bf0 <init_pins+0xf4>)
 8001b9a:	2180      	movs	r1, #128	; 0x80
 8001b9c:	0049      	lsls	r1, r1, #1
 8001b9e:	430a      	orrs	r2, r1
 8001ba0:	601a      	str	r2, [r3, #0]
	SET_BIT(GPIOB->OSPEEDR, GPIO_OSPEEDR_OSPEEDR4);     //  
 8001ba2:	4b13      	ldr	r3, [pc, #76]	; (8001bf0 <init_pins+0xf4>)
 8001ba4:	689a      	ldr	r2, [r3, #8]
 8001ba6:	4b12      	ldr	r3, [pc, #72]	; (8001bf0 <init_pins+0xf4>)
 8001ba8:	21c0      	movs	r1, #192	; 0xc0
 8001baa:	0089      	lsls	r1, r1, #2
 8001bac:	430a      	orrs	r2, r1
 8001bae:	609a      	str	r2, [r3, #8]

	SET_BIT(GPIOB->MODER, GPIO_MODER_MODER5_0);  //   5
 8001bb0:	4b0f      	ldr	r3, [pc, #60]	; (8001bf0 <init_pins+0xf4>)
 8001bb2:	681a      	ldr	r2, [r3, #0]
 8001bb4:	4b0e      	ldr	r3, [pc, #56]	; (8001bf0 <init_pins+0xf4>)
 8001bb6:	2180      	movs	r1, #128	; 0x80
 8001bb8:	00c9      	lsls	r1, r1, #3
 8001bba:	430a      	orrs	r2, r1
 8001bbc:	601a      	str	r2, [r3, #0]
	SET_BIT(GPIOB->OSPEEDR, GPIO_OSPEEDR_OSPEEDR5);     //  
 8001bbe:	4b0c      	ldr	r3, [pc, #48]	; (8001bf0 <init_pins+0xf4>)
 8001bc0:	689a      	ldr	r2, [r3, #8]
 8001bc2:	4b0b      	ldr	r3, [pc, #44]	; (8001bf0 <init_pins+0xf4>)
 8001bc4:	21c0      	movs	r1, #192	; 0xc0
 8001bc6:	0109      	lsls	r1, r1, #4
 8001bc8:	430a      	orrs	r2, r1
 8001bca:	609a      	str	r2, [r3, #8]

	SET_BIT(GPIOB->OSPEEDR, GPIO_OSPEEDR_OSPEEDR6); //   6
 8001bcc:	4b08      	ldr	r3, [pc, #32]	; (8001bf0 <init_pins+0xf4>)
 8001bce:	689a      	ldr	r2, [r3, #8]
 8001bd0:	4b07      	ldr	r3, [pc, #28]	; (8001bf0 <init_pins+0xf4>)
 8001bd2:	21c0      	movs	r1, #192	; 0xc0
 8001bd4:	0189      	lsls	r1, r1, #6
 8001bd6:	430a      	orrs	r2, r1
 8001bd8:	609a      	str	r2, [r3, #8]
	SET_BIT(GPIOB->OSPEEDR, GPIO_OSPEEDR_OSPEEDR7); //   7
 8001bda:	4b05      	ldr	r3, [pc, #20]	; (8001bf0 <init_pins+0xf4>)
 8001bdc:	689a      	ldr	r2, [r3, #8]
 8001bde:	4b04      	ldr	r3, [pc, #16]	; (8001bf0 <init_pins+0xf4>)
 8001be0:	21c0      	movs	r1, #192	; 0xc0
 8001be2:	0209      	lsls	r1, r1, #8
 8001be4:	430a      	orrs	r2, r1
 8001be6:	609a      	str	r2, [r3, #8]

}
 8001be8:	46c0      	nop			; (mov r8, r8)
 8001bea:	46bd      	mov	sp, r7
 8001bec:	bd80      	pop	{r7, pc}
 8001bee:	46c0      	nop			; (mov r8, r8)
 8001bf0:	48000400 	.word	0x48000400

08001bf4 <init_debug_pin>:

void init_debug_pin(void) {
 8001bf4:	b580      	push	{r7, lr}
 8001bf6:	af00      	add	r7, sp, #0
	MODIFY_REG(GPIOA->MODER, GPIO_MODER_MODER13_Msk, GPIO_MODER_MODER13_0); //   13
 8001bf8:	2390      	movs	r3, #144	; 0x90
 8001bfa:	05db      	lsls	r3, r3, #23
 8001bfc:	681b      	ldr	r3, [r3, #0]
 8001bfe:	4a24      	ldr	r2, [pc, #144]	; (8001c90 <init_debug_pin+0x9c>)
 8001c00:	401a      	ands	r2, r3
 8001c02:	2390      	movs	r3, #144	; 0x90
 8001c04:	05db      	lsls	r3, r3, #23
 8001c06:	2180      	movs	r1, #128	; 0x80
 8001c08:	04c9      	lsls	r1, r1, #19
 8001c0a:	430a      	orrs	r2, r1
 8001c0c:	601a      	str	r2, [r3, #0]
	CLEAR_BIT(GPIOA->OTYPER, GPIO_OTYPER_OT_13);         // push_pull
 8001c0e:	2390      	movs	r3, #144	; 0x90
 8001c10:	05db      	lsls	r3, r3, #23
 8001c12:	685a      	ldr	r2, [r3, #4]
 8001c14:	2390      	movs	r3, #144	; 0x90
 8001c16:	05db      	lsls	r3, r3, #23
 8001c18:	491e      	ldr	r1, [pc, #120]	; (8001c94 <init_debug_pin+0xa0>)
 8001c1a:	400a      	ands	r2, r1
 8001c1c:	605a      	str	r2, [r3, #4]
	CLEAR_BIT(GPIOA->PUPDR, GPIO_PUPDR_PUPDR13_Msk);     //  
 8001c1e:	2390      	movs	r3, #144	; 0x90
 8001c20:	05db      	lsls	r3, r3, #23
 8001c22:	68da      	ldr	r2, [r3, #12]
 8001c24:	2390      	movs	r3, #144	; 0x90
 8001c26:	05db      	lsls	r3, r3, #23
 8001c28:	4919      	ldr	r1, [pc, #100]	; (8001c90 <init_debug_pin+0x9c>)
 8001c2a:	400a      	ands	r2, r1
 8001c2c:	60da      	str	r2, [r3, #12]
	SET_BIT(GPIOA->OSPEEDR, GPIO_OSPEEDR_OSPEEDR13);    //  
 8001c2e:	2390      	movs	r3, #144	; 0x90
 8001c30:	05db      	lsls	r3, r3, #23
 8001c32:	689a      	ldr	r2, [r3, #8]
 8001c34:	2390      	movs	r3, #144	; 0x90
 8001c36:	05db      	lsls	r3, r3, #23
 8001c38:	21c0      	movs	r1, #192	; 0xc0
 8001c3a:	0509      	lsls	r1, r1, #20
 8001c3c:	430a      	orrs	r2, r1
 8001c3e:	609a      	str	r2, [r3, #8]

	MODIFY_REG(GPIOA->MODER, GPIO_MODER_MODER14_Msk, GPIO_MODER_MODER14_0); //   14
 8001c40:	2390      	movs	r3, #144	; 0x90
 8001c42:	05db      	lsls	r3, r3, #23
 8001c44:	681b      	ldr	r3, [r3, #0]
 8001c46:	4a14      	ldr	r2, [pc, #80]	; (8001c98 <init_debug_pin+0xa4>)
 8001c48:	401a      	ands	r2, r3
 8001c4a:	2390      	movs	r3, #144	; 0x90
 8001c4c:	05db      	lsls	r3, r3, #23
 8001c4e:	2180      	movs	r1, #128	; 0x80
 8001c50:	0549      	lsls	r1, r1, #21
 8001c52:	430a      	orrs	r2, r1
 8001c54:	601a      	str	r2, [r3, #0]
	CLEAR_BIT(GPIOA->OTYPER, GPIO_OTYPER_OT_14);         // push_pull
 8001c56:	2390      	movs	r3, #144	; 0x90
 8001c58:	05db      	lsls	r3, r3, #23
 8001c5a:	685a      	ldr	r2, [r3, #4]
 8001c5c:	2390      	movs	r3, #144	; 0x90
 8001c5e:	05db      	lsls	r3, r3, #23
 8001c60:	490e      	ldr	r1, [pc, #56]	; (8001c9c <init_debug_pin+0xa8>)
 8001c62:	400a      	ands	r2, r1
 8001c64:	605a      	str	r2, [r3, #4]
	CLEAR_BIT(GPIOA->PUPDR, GPIO_PUPDR_PUPDR14_Msk);     //  
 8001c66:	2390      	movs	r3, #144	; 0x90
 8001c68:	05db      	lsls	r3, r3, #23
 8001c6a:	68da      	ldr	r2, [r3, #12]
 8001c6c:	2390      	movs	r3, #144	; 0x90
 8001c6e:	05db      	lsls	r3, r3, #23
 8001c70:	4909      	ldr	r1, [pc, #36]	; (8001c98 <init_debug_pin+0xa4>)
 8001c72:	400a      	ands	r2, r1
 8001c74:	60da      	str	r2, [r3, #12]
	SET_BIT(GPIOA->OSPEEDR, GPIO_OSPEEDR_OSPEEDR14);    //  
 8001c76:	2390      	movs	r3, #144	; 0x90
 8001c78:	05db      	lsls	r3, r3, #23
 8001c7a:	689a      	ldr	r2, [r3, #8]
 8001c7c:	2390      	movs	r3, #144	; 0x90
 8001c7e:	05db      	lsls	r3, r3, #23
 8001c80:	21c0      	movs	r1, #192	; 0xc0
 8001c82:	0589      	lsls	r1, r1, #22
 8001c84:	430a      	orrs	r2, r1
 8001c86:	609a      	str	r2, [r3, #8]
}
 8001c88:	46c0      	nop			; (mov r8, r8)
 8001c8a:	46bd      	mov	sp, r7
 8001c8c:	bd80      	pop	{r7, pc}
 8001c8e:	46c0      	nop			; (mov r8, r8)
 8001c90:	f3ffffff 	.word	0xf3ffffff
 8001c94:	ffffdfff 	.word	0xffffdfff
 8001c98:	cfffffff 	.word	0xcfffffff
 8001c9c:	ffffbfff 	.word	0xffffbfff

08001ca0 <new_data_flag>:
struct stepp stepp_2;

struct _flags flags;
struct _flags *point_flags = &flags;

void new_data_flag (uint32_t flag) {                           //        
 8001ca0:	b580      	push	{r7, lr}
 8001ca2:	b082      	sub	sp, #8
 8001ca4:	af00      	add	r7, sp, #0
 8001ca6:	6078      	str	r0, [r7, #4]
	if (point_flags->ir_filter == 0 && (flag & 0x01)){         //          
 8001ca8:	4b24      	ldr	r3, [pc, #144]	; (8001d3c <new_data_flag+0x9c>)
 8001caa:	681b      	ldr	r3, [r3, #0]
 8001cac:	781b      	ldrb	r3, [r3, #0]
 8001cae:	227f      	movs	r2, #127	; 0x7f
 8001cb0:	4393      	bics	r3, r2
 8001cb2:	b2db      	uxtb	r3, r3
 8001cb4:	2b00      	cmp	r3, #0
 8001cb6:	d11a      	bne.n	8001cee <new_data_flag+0x4e>
 8001cb8:	687b      	ldr	r3, [r7, #4]
 8001cba:	2201      	movs	r2, #1
 8001cbc:	4013      	ands	r3, r2
 8001cbe:	d016      	beq.n	8001cee <new_data_flag+0x4e>
		point_flags->ir_filter = 1;
 8001cc0:	4b1e      	ldr	r3, [pc, #120]	; (8001d3c <new_data_flag+0x9c>)
 8001cc2:	681b      	ldr	r3, [r3, #0]
 8001cc4:	781a      	ldrb	r2, [r3, #0]
 8001cc6:	2180      	movs	r1, #128	; 0x80
 8001cc8:	4249      	negs	r1, r1
 8001cca:	430a      	orrs	r2, r1
 8001ccc:	701a      	strb	r2, [r3, #0]
		STEP3_ON;
 8001cce:	2390      	movs	r3, #144	; 0x90
 8001cd0:	05db      	lsls	r3, r3, #23
 8001cd2:	699a      	ldr	r2, [r3, #24]
 8001cd4:	2390      	movs	r3, #144	; 0x90
 8001cd6:	05db      	lsls	r3, r3, #23
 8001cd8:	2180      	movs	r1, #128	; 0x80
 8001cda:	430a      	orrs	r2, r1
 8001cdc:	619a      	str	r2, [r3, #24]
		flags.delay = 4;
 8001cde:	4b18      	ldr	r3, [pc, #96]	; (8001d40 <new_data_flag+0xa0>)
 8001ce0:	681a      	ldr	r2, [r3, #0]
 8001ce2:	4918      	ldr	r1, [pc, #96]	; (8001d44 <new_data_flag+0xa4>)
 8001ce4:	400a      	ands	r2, r1
 8001ce6:	2180      	movs	r1, #128	; 0x80
 8001ce8:	0209      	lsls	r1, r1, #8
 8001cea:	430a      	orrs	r2, r1
 8001cec:	601a      	str	r2, [r3, #0]
	}
	if (point_flags->ir_filter == 1 && !(flag & 0x01)) {
 8001cee:	4b13      	ldr	r3, [pc, #76]	; (8001d3c <new_data_flag+0x9c>)
 8001cf0:	681b      	ldr	r3, [r3, #0]
 8001cf2:	781b      	ldrb	r3, [r3, #0]
 8001cf4:	227f      	movs	r2, #127	; 0x7f
 8001cf6:	4393      	bics	r3, r2
 8001cf8:	b2db      	uxtb	r3, r3
 8001cfa:	2b00      	cmp	r3, #0
 8001cfc:	d019      	beq.n	8001d32 <new_data_flag+0x92>
 8001cfe:	687b      	ldr	r3, [r7, #4]
 8001d00:	2201      	movs	r2, #1
 8001d02:	4013      	ands	r3, r2
 8001d04:	d115      	bne.n	8001d32 <new_data_flag+0x92>
		point_flags->ir_filter = 0;
 8001d06:	4b0d      	ldr	r3, [pc, #52]	; (8001d3c <new_data_flag+0x9c>)
 8001d08:	681b      	ldr	r3, [r3, #0]
 8001d0a:	781a      	ldrb	r2, [r3, #0]
 8001d0c:	217f      	movs	r1, #127	; 0x7f
 8001d0e:	400a      	ands	r2, r1
 8001d10:	701a      	strb	r2, [r3, #0]
		STEP3_ON;
 8001d12:	2390      	movs	r3, #144	; 0x90
 8001d14:	05db      	lsls	r3, r3, #23
 8001d16:	699a      	ldr	r2, [r3, #24]
 8001d18:	2390      	movs	r3, #144	; 0x90
 8001d1a:	05db      	lsls	r3, r3, #23
 8001d1c:	2180      	movs	r1, #128	; 0x80
 8001d1e:	430a      	orrs	r2, r1
 8001d20:	619a      	str	r2, [r3, #24]
		flags.delay = 4;
 8001d22:	4b07      	ldr	r3, [pc, #28]	; (8001d40 <new_data_flag+0xa0>)
 8001d24:	681a      	ldr	r2, [r3, #0]
 8001d26:	4907      	ldr	r1, [pc, #28]	; (8001d44 <new_data_flag+0xa4>)
 8001d28:	400a      	ands	r2, r1
 8001d2a:	2180      	movs	r1, #128	; 0x80
 8001d2c:	0209      	lsls	r1, r1, #8
 8001d2e:	430a      	orrs	r2, r1
 8001d30:	601a      	str	r2, [r3, #0]
	}
}
 8001d32:	46c0      	nop			; (mov r8, r8)
 8001d34:	46bd      	mov	sp, r7
 8001d36:	b002      	add	sp, #8
 8001d38:	bd80      	pop	{r7, pc}
 8001d3a:	46c0      	nop			; (mov r8, r8)
 8001d3c:	20000000 	.word	0x20000000
 8001d40:	2000006c 	.word	0x2000006c
 8001d44:	fffe1fff 	.word	0xfffe1fff

08001d48 <stop_motor>:

void stop_motor (void){
 8001d48:	b580      	push	{r7, lr}
 8001d4a:	af00      	add	r7, sp, #0
	stepp_1.curent_steps = stepp_1.last_steps;
 8001d4c:	4b05      	ldr	r3, [pc, #20]	; (8001d64 <stop_motor+0x1c>)
 8001d4e:	681a      	ldr	r2, [r3, #0]
 8001d50:	4b04      	ldr	r3, [pc, #16]	; (8001d64 <stop_motor+0x1c>)
 8001d52:	605a      	str	r2, [r3, #4]
	stepp_2.curent_steps = stepp_2.last_steps;
 8001d54:	4b04      	ldr	r3, [pc, #16]	; (8001d68 <stop_motor+0x20>)
 8001d56:	681a      	ldr	r2, [r3, #0]
 8001d58:	4b03      	ldr	r3, [pc, #12]	; (8001d68 <stop_motor+0x20>)
 8001d5a:	605a      	str	r2, [r3, #4]
}
 8001d5c:	46c0      	nop			; (mov r8, r8)
 8001d5e:	46bd      	mov	sp, r7
 8001d60:	bd80      	pop	{r7, pc}
 8001d62:	46c0      	nop			; (mov r8, r8)
 8001d64:	2000004c 	.word	0x2000004c
 8001d68:	2000005c 	.word	0x2000005c

08001d6c <poz_motor>:

uint32_t poz_motor (uint8_t num_motor){
 8001d6c:	b580      	push	{r7, lr}
 8001d6e:	b082      	sub	sp, #8
 8001d70:	af00      	add	r7, sp, #0
 8001d72:	0002      	movs	r2, r0
 8001d74:	1dfb      	adds	r3, r7, #7
 8001d76:	701a      	strb	r2, [r3, #0]
	if (num_motor == 1) {
 8001d78:	1dfb      	adds	r3, r7, #7
 8001d7a:	781b      	ldrb	r3, [r3, #0]
 8001d7c:	2b01      	cmp	r3, #1
 8001d7e:	d102      	bne.n	8001d86 <poz_motor+0x1a>
	//	return map (stepp_1.last_steps, (stepp_1.step_down<<4)-PROTECT, (stepp_1.step_up<<4)-PROTECT, RESOLUTION, 0);
		return stepp_1.last_steps ;  //     
 8001d80:	4b07      	ldr	r3, [pc, #28]	; (8001da0 <poz_motor+0x34>)
 8001d82:	681b      	ldr	r3, [r3, #0]
 8001d84:	e007      	b.n	8001d96 <poz_motor+0x2a>
	}
	if (num_motor == 2) {
 8001d86:	1dfb      	adds	r3, r7, #7
 8001d88:	781b      	ldrb	r3, [r3, #0]
 8001d8a:	2b02      	cmp	r3, #2
 8001d8c:	d102      	bne.n	8001d94 <poz_motor+0x28>
	//	return map (stepp_2.last_steps, (stepp_2.step_down<<4)-PROTECT, (stepp_2.step_up<<4)-PROTECT, 0,RESOLUTION);
		return stepp_2.last_steps ;
 8001d8e:	4b05      	ldr	r3, [pc, #20]	; (8001da4 <poz_motor+0x38>)
 8001d90:	681b      	ldr	r3, [r3, #0]
 8001d92:	e000      	b.n	8001d96 <poz_motor+0x2a>
	}
	return 0;
 8001d94:	2300      	movs	r3, #0
}
 8001d96:	0018      	movs	r0, r3
 8001d98:	46bd      	mov	sp, r7
 8001d9a:	b002      	add	sp, #8
 8001d9c:	bd80      	pop	{r7, pc}
 8001d9e:	46c0      	nop			; (mov r8, r8)
 8001da0:	2000004c 	.word	0x2000004c
 8001da4:	2000005c 	.word	0x2000005c

08001da8 <search_zero>:

static inline void search_zero(void) {              //  
 8001da8:	b580      	push	{r7, lr}
 8001daa:	af00      	add	r7, sp, #0
	if (!flags.start_zero) {                        //       
 8001dac:	4b5c      	ldr	r3, [pc, #368]	; (8001f20 <search_zero+0x178>)
 8001dae:	781b      	ldrb	r3, [r3, #0]
 8001db0:	2204      	movs	r2, #4
 8001db2:	4013      	ands	r3, r2
 8001db4:	b2db      	uxtb	r3, r3
 8001db6:	2b00      	cmp	r3, #0
 8001db8:	d111      	bne.n	8001dde <search_zero+0x36>
		flags.start_zero = TRUE;                    //    
 8001dba:	4b59      	ldr	r3, [pc, #356]	; (8001f20 <search_zero+0x178>)
 8001dbc:	781a      	ldrb	r2, [r3, #0]
 8001dbe:	2104      	movs	r1, #4
 8001dc0:	430a      	orrs	r2, r1
 8001dc2:	701a      	strb	r2, [r3, #0]
		DIR1_ON;                                    //     ,    
 8001dc4:	4b57      	ldr	r3, [pc, #348]	; (8001f24 <search_zero+0x17c>)
 8001dc6:	699a      	ldr	r2, [r3, #24]
 8001dc8:	4b56      	ldr	r3, [pc, #344]	; (8001f24 <search_zero+0x17c>)
 8001dca:	2120      	movs	r1, #32
 8001dcc:	430a      	orrs	r2, r1
 8001dce:	619a      	str	r2, [r3, #24]
		DIR2_ON;                                    //        ,   
 8001dd0:	4b54      	ldr	r3, [pc, #336]	; (8001f24 <search_zero+0x17c>)
 8001dd2:	699a      	ldr	r2, [r3, #24]
 8001dd4:	4b53      	ldr	r3, [pc, #332]	; (8001f24 <search_zero+0x17c>)
 8001dd6:	2110      	movs	r1, #16
 8001dd8:	430a      	orrs	r2, r1
 8001dda:	619a      	str	r2, [r3, #24]
 8001ddc:	e06f      	b.n	8001ebe <search_zero+0x116>
	} else {                                        //      
		if (READ_LIM1 && !flags.zero_pos1) {        //   ,   , 
 8001dde:	4b51      	ldr	r3, [pc, #324]	; (8001f24 <search_zero+0x17c>)
 8001de0:	691b      	ldr	r3, [r3, #16]
 8001de2:	2280      	movs	r2, #128	; 0x80
 8001de4:	4013      	ands	r3, r2
 8001de6:	d024      	beq.n	8001e32 <search_zero+0x8a>
 8001de8:	4b4d      	ldr	r3, [pc, #308]	; (8001f20 <search_zero+0x178>)
 8001dea:	781b      	ldrb	r3, [r3, #0]
 8001dec:	2201      	movs	r2, #1
 8001dee:	4013      	ands	r3, r2
 8001df0:	b2db      	uxtb	r3, r3
 8001df2:	2b00      	cmp	r3, #0
 8001df4:	d11d      	bne.n	8001e32 <search_zero+0x8a>
			if (GPIOA->IDR & GPIO_IDR_0)            //        ,
 8001df6:	2390      	movs	r3, #144	; 0x90
 8001df8:	05db      	lsls	r3, r3, #23
 8001dfa:	691b      	ldr	r3, [r3, #16]
 8001dfc:	2201      	movs	r2, #1
 8001dfe:	4013      	ands	r3, r2
 8001e00:	d009      	beq.n	8001e16 <search_zero+0x6e>
				STEP1_OFF;                          //  1   0
 8001e02:	2390      	movs	r3, #144	; 0x90
 8001e04:	05db      	lsls	r3, r3, #23
 8001e06:	699a      	ldr	r2, [r3, #24]
 8001e08:	2390      	movs	r3, #144	; 0x90
 8001e0a:	05db      	lsls	r3, r3, #23
 8001e0c:	2180      	movs	r1, #128	; 0x80
 8001e0e:	0249      	lsls	r1, r1, #9
 8001e10:	430a      	orrs	r2, r1
 8001e12:	619a      	str	r2, [r3, #24]
			if (GPIOA->IDR & GPIO_IDR_0)            //        ,
 8001e14:	e01b      	b.n	8001e4e <search_zero+0xa6>
			else {
				STEP1_ON;                           //    0   1  
 8001e16:	2390      	movs	r3, #144	; 0x90
 8001e18:	05db      	lsls	r3, r3, #23
 8001e1a:	699a      	ldr	r2, [r3, #24]
 8001e1c:	2390      	movs	r3, #144	; 0x90
 8001e1e:	05db      	lsls	r3, r3, #23
 8001e20:	2101      	movs	r1, #1
 8001e22:	430a      	orrs	r2, r1
 8001e24:	619a      	str	r2, [r3, #24]
				stepp_1.step_down ++;                   //       --;
 8001e26:	4b40      	ldr	r3, [pc, #256]	; (8001f28 <search_zero+0x180>)
 8001e28:	68db      	ldr	r3, [r3, #12]
 8001e2a:	1c5a      	adds	r2, r3, #1
 8001e2c:	4b3e      	ldr	r3, [pc, #248]	; (8001f28 <search_zero+0x180>)
 8001e2e:	60da      	str	r2, [r3, #12]
			if (GPIOA->IDR & GPIO_IDR_0)            //        ,
 8001e30:	e00d      	b.n	8001e4e <search_zero+0xa6>
			}
		} else {
			flags.zero_pos1 = TRUE;                 //       
 8001e32:	4b3b      	ldr	r3, [pc, #236]	; (8001f20 <search_zero+0x178>)
 8001e34:	781a      	ldrb	r2, [r3, #0]
 8001e36:	2101      	movs	r1, #1
 8001e38:	430a      	orrs	r2, r1
 8001e3a:	701a      	strb	r2, [r3, #0]
			STEP1_OFF;                              //     0
 8001e3c:	2390      	movs	r3, #144	; 0x90
 8001e3e:	05db      	lsls	r3, r3, #23
 8001e40:	699a      	ldr	r2, [r3, #24]
 8001e42:	2390      	movs	r3, #144	; 0x90
 8001e44:	05db      	lsls	r3, r3, #23
 8001e46:	2180      	movs	r1, #128	; 0x80
 8001e48:	0249      	lsls	r1, r1, #9
 8001e4a:	430a      	orrs	r2, r1
 8001e4c:	619a      	str	r2, [r3, #24]
		}
		if (READ_LIM2 && !flags.zero_pos2) {        //   ,   , 
 8001e4e:	4b35      	ldr	r3, [pc, #212]	; (8001f24 <search_zero+0x17c>)
 8001e50:	691b      	ldr	r3, [r3, #16]
 8001e52:	2240      	movs	r2, #64	; 0x40
 8001e54:	4013      	ands	r3, r2
 8001e56:	d024      	beq.n	8001ea2 <search_zero+0xfa>
 8001e58:	4b31      	ldr	r3, [pc, #196]	; (8001f20 <search_zero+0x178>)
 8001e5a:	781b      	ldrb	r3, [r3, #0]
 8001e5c:	2202      	movs	r2, #2
 8001e5e:	4013      	ands	r3, r2
 8001e60:	b2db      	uxtb	r3, r3
 8001e62:	2b00      	cmp	r3, #0
 8001e64:	d11d      	bne.n	8001ea2 <search_zero+0xfa>
			if (GPIOA->IDR & GPIO_IDR_1)
 8001e66:	2390      	movs	r3, #144	; 0x90
 8001e68:	05db      	lsls	r3, r3, #23
 8001e6a:	691b      	ldr	r3, [r3, #16]
 8001e6c:	2202      	movs	r2, #2
 8001e6e:	4013      	ands	r3, r2
 8001e70:	d009      	beq.n	8001e86 <search_zero+0xde>
				STEP2_OFF;                          //        ,  1   0
 8001e72:	2390      	movs	r3, #144	; 0x90
 8001e74:	05db      	lsls	r3, r3, #23
 8001e76:	699a      	ldr	r2, [r3, #24]
 8001e78:	2390      	movs	r3, #144	; 0x90
 8001e7a:	05db      	lsls	r3, r3, #23
 8001e7c:	2180      	movs	r1, #128	; 0x80
 8001e7e:	0289      	lsls	r1, r1, #10
 8001e80:	430a      	orrs	r2, r1
 8001e82:	619a      	str	r2, [r3, #24]
			if (GPIOA->IDR & GPIO_IDR_1)
 8001e84:	e01b      	b.n	8001ebe <search_zero+0x116>
			else {
				STEP2_ON;                           //    0   1  
 8001e86:	2390      	movs	r3, #144	; 0x90
 8001e88:	05db      	lsls	r3, r3, #23
 8001e8a:	699a      	ldr	r2, [r3, #24]
 8001e8c:	2390      	movs	r3, #144	; 0x90
 8001e8e:	05db      	lsls	r3, r3, #23
 8001e90:	2102      	movs	r1, #2
 8001e92:	430a      	orrs	r2, r1
 8001e94:	619a      	str	r2, [r3, #24]
				stepp_2.step_down ++;
 8001e96:	4b25      	ldr	r3, [pc, #148]	; (8001f2c <search_zero+0x184>)
 8001e98:	68db      	ldr	r3, [r3, #12]
 8001e9a:	1c5a      	adds	r2, r3, #1
 8001e9c:	4b23      	ldr	r3, [pc, #140]	; (8001f2c <search_zero+0x184>)
 8001e9e:	60da      	str	r2, [r3, #12]
			if (GPIOA->IDR & GPIO_IDR_1)
 8001ea0:	e00d      	b.n	8001ebe <search_zero+0x116>
			}
		} else {
			flags.zero_pos2 = TRUE;                 //       
 8001ea2:	4b1f      	ldr	r3, [pc, #124]	; (8001f20 <search_zero+0x178>)
 8001ea4:	781a      	ldrb	r2, [r3, #0]
 8001ea6:	2102      	movs	r1, #2
 8001ea8:	430a      	orrs	r2, r1
 8001eaa:	701a      	strb	r2, [r3, #0]
			STEP2_OFF;
 8001eac:	2390      	movs	r3, #144	; 0x90
 8001eae:	05db      	lsls	r3, r3, #23
 8001eb0:	699a      	ldr	r2, [r3, #24]
 8001eb2:	2390      	movs	r3, #144	; 0x90
 8001eb4:	05db      	lsls	r3, r3, #23
 8001eb6:	2180      	movs	r1, #128	; 0x80
 8001eb8:	0289      	lsls	r1, r1, #10
 8001eba:	430a      	orrs	r2, r1
 8001ebc:	619a      	str	r2, [r3, #24]
		}
	}

	if (flags.zero_pos1 && flags.zero_pos2) {       //        
 8001ebe:	4b18      	ldr	r3, [pc, #96]	; (8001f20 <search_zero+0x178>)
 8001ec0:	781b      	ldrb	r3, [r3, #0]
 8001ec2:	2201      	movs	r2, #1
 8001ec4:	4013      	ands	r3, r2
 8001ec6:	b2db      	uxtb	r3, r3
 8001ec8:	2b00      	cmp	r3, #0
 8001eca:	d026      	beq.n	8001f1a <search_zero+0x172>
 8001ecc:	4b14      	ldr	r3, [pc, #80]	; (8001f20 <search_zero+0x178>)
 8001ece:	781b      	ldrb	r3, [r3, #0]
 8001ed0:	2202      	movs	r2, #2
 8001ed2:	4013      	ands	r3, r2
 8001ed4:	b2db      	uxtb	r3, r3
 8001ed6:	2b00      	cmp	r3, #0
 8001ed8:	d01f      	beq.n	8001f1a <search_zero+0x172>
		flags.zero_ok = TRUE;                       //  
 8001eda:	4b11      	ldr	r3, [pc, #68]	; (8001f20 <search_zero+0x178>)
 8001edc:	781a      	ldrb	r2, [r3, #0]
 8001ede:	2118      	movs	r1, #24
 8001ee0:	438a      	bics	r2, r1
 8001ee2:	1c11      	adds	r1, r2, #0
 8001ee4:	2208      	movs	r2, #8
 8001ee6:	430a      	orrs	r2, r1
 8001ee8:	701a      	strb	r2, [r3, #0]
		stepp_1.last_steps = stepp_1.step_down << 5;     //         
 8001eea:	4b0f      	ldr	r3, [pc, #60]	; (8001f28 <search_zero+0x180>)
 8001eec:	68db      	ldr	r3, [r3, #12]
 8001eee:	015a      	lsls	r2, r3, #5
 8001ef0:	4b0d      	ldr	r3, [pc, #52]	; (8001f28 <search_zero+0x180>)
 8001ef2:	601a      	str	r2, [r3, #0]
		stepp_2.last_steps = stepp_2.step_down << 5;
 8001ef4:	4b0d      	ldr	r3, [pc, #52]	; (8001f2c <search_zero+0x184>)
 8001ef6:	68db      	ldr	r3, [r3, #12]
 8001ef8:	015a      	lsls	r2, r3, #5
 8001efa:	4b0c      	ldr	r3, [pc, #48]	; (8001f2c <search_zero+0x184>)
 8001efc:	601a      	str	r2, [r3, #0]
		stepp_1.curent_steps = stepp_1.last_steps;
 8001efe:	4b0a      	ldr	r3, [pc, #40]	; (8001f28 <search_zero+0x180>)
 8001f00:	681a      	ldr	r2, [r3, #0]
 8001f02:	4b09      	ldr	r3, [pc, #36]	; (8001f28 <search_zero+0x180>)
 8001f04:	605a      	str	r2, [r3, #4]
		stepp_2.curent_steps = stepp_2.last_steps;
 8001f06:	4b09      	ldr	r3, [pc, #36]	; (8001f2c <search_zero+0x184>)
 8001f08:	681a      	ldr	r2, [r3, #0]
 8001f0a:	4b08      	ldr	r3, [pc, #32]	; (8001f2c <search_zero+0x184>)
 8001f0c:	605a      	str	r2, [r3, #4]
		//flags.zero_in_programm = FALSE;             //     
		//flags.reset_setting = TRUE;                 //      , 
		CLEAR_BIT(TIM17->DIER, TIM_DIER_UIE);       //    
 8001f0e:	4b08      	ldr	r3, [pc, #32]	; (8001f30 <search_zero+0x188>)
 8001f10:	68da      	ldr	r2, [r3, #12]
 8001f12:	4b07      	ldr	r3, [pc, #28]	; (8001f30 <search_zero+0x188>)
 8001f14:	2101      	movs	r1, #1
 8001f16:	438a      	bics	r2, r1
 8001f18:	60da      	str	r2, [r3, #12]
	}
}
 8001f1a:	46c0      	nop			; (mov r8, r8)
 8001f1c:	46bd      	mov	sp, r7
 8001f1e:	bd80      	pop	{r7, pc}
 8001f20:	2000006c 	.word	0x2000006c
 8001f24:	48000400 	.word	0x48000400
 8001f28:	2000004c 	.word	0x2000004c
 8001f2c:	2000005c 	.word	0x2000005c
 8001f30:	40014800 	.word	0x40014800

08001f34 <revers_zero>:

static inline void revers_zero (void){
 8001f34:	b580      	push	{r7, lr}
 8001f36:	af00      	add	r7, sp, #0
	if (!flags.start_zero) {                        //       
 8001f38:	4b54      	ldr	r3, [pc, #336]	; (800208c <revers_zero+0x158>)
 8001f3a:	781b      	ldrb	r3, [r3, #0]
 8001f3c:	2204      	movs	r2, #4
 8001f3e:	4013      	ands	r3, r2
 8001f40:	b2db      	uxtb	r3, r3
 8001f42:	2b00      	cmp	r3, #0
 8001f44:	d113      	bne.n	8001f6e <revers_zero+0x3a>
		flags.start_zero = TRUE;                    //    
 8001f46:	4b51      	ldr	r3, [pc, #324]	; (800208c <revers_zero+0x158>)
 8001f48:	781a      	ldrb	r2, [r3, #0]
 8001f4a:	2104      	movs	r1, #4
 8001f4c:	430a      	orrs	r2, r1
 8001f4e:	701a      	strb	r2, [r3, #0]
		DIR1_OFF;                                   //     ,    
 8001f50:	4b4f      	ldr	r3, [pc, #316]	; (8002090 <revers_zero+0x15c>)
 8001f52:	699a      	ldr	r2, [r3, #24]
 8001f54:	4b4e      	ldr	r3, [pc, #312]	; (8002090 <revers_zero+0x15c>)
 8001f56:	2180      	movs	r1, #128	; 0x80
 8001f58:	0389      	lsls	r1, r1, #14
 8001f5a:	430a      	orrs	r2, r1
 8001f5c:	619a      	str	r2, [r3, #24]
		DIR2_OFF;                                   //        ,   
 8001f5e:	4b4c      	ldr	r3, [pc, #304]	; (8002090 <revers_zero+0x15c>)
 8001f60:	699a      	ldr	r2, [r3, #24]
 8001f62:	4b4b      	ldr	r3, [pc, #300]	; (8002090 <revers_zero+0x15c>)
 8001f64:	2180      	movs	r1, #128	; 0x80
 8001f66:	0349      	lsls	r1, r1, #13
 8001f68:	430a      	orrs	r2, r1
 8001f6a:	619a      	str	r2, [r3, #24]
 8001f6c:	e06f      	b.n	800204e <revers_zero+0x11a>
	} else {                                        //      
		if (!READ_LIM1 && !flags.zero_pos1) {       //   ,   , 
 8001f6e:	4b48      	ldr	r3, [pc, #288]	; (8002090 <revers_zero+0x15c>)
 8001f70:	691b      	ldr	r3, [r3, #16]
 8001f72:	2280      	movs	r2, #128	; 0x80
 8001f74:	4013      	ands	r3, r2
 8001f76:	d124      	bne.n	8001fc2 <revers_zero+0x8e>
 8001f78:	4b44      	ldr	r3, [pc, #272]	; (800208c <revers_zero+0x158>)
 8001f7a:	781b      	ldrb	r3, [r3, #0]
 8001f7c:	2201      	movs	r2, #1
 8001f7e:	4013      	ands	r3, r2
 8001f80:	b2db      	uxtb	r3, r3
 8001f82:	2b00      	cmp	r3, #0
 8001f84:	d11d      	bne.n	8001fc2 <revers_zero+0x8e>
			if (GPIOA->IDR & GPIO_IDR_0)            //        ,
 8001f86:	2390      	movs	r3, #144	; 0x90
 8001f88:	05db      	lsls	r3, r3, #23
 8001f8a:	691b      	ldr	r3, [r3, #16]
 8001f8c:	2201      	movs	r2, #1
 8001f8e:	4013      	ands	r3, r2
 8001f90:	d009      	beq.n	8001fa6 <revers_zero+0x72>
				STEP1_OFF;                          //  1   0
 8001f92:	2390      	movs	r3, #144	; 0x90
 8001f94:	05db      	lsls	r3, r3, #23
 8001f96:	699a      	ldr	r2, [r3, #24]
 8001f98:	2390      	movs	r3, #144	; 0x90
 8001f9a:	05db      	lsls	r3, r3, #23
 8001f9c:	2180      	movs	r1, #128	; 0x80
 8001f9e:	0249      	lsls	r1, r1, #9
 8001fa0:	430a      	orrs	r2, r1
 8001fa2:	619a      	str	r2, [r3, #24]
			if (GPIOA->IDR & GPIO_IDR_0)            //        ,
 8001fa4:	e01b      	b.n	8001fde <revers_zero+0xaa>
			else {
				STEP1_ON;                           //    0   1  
 8001fa6:	2390      	movs	r3, #144	; 0x90
 8001fa8:	05db      	lsls	r3, r3, #23
 8001faa:	699a      	ldr	r2, [r3, #24]
 8001fac:	2390      	movs	r3, #144	; 0x90
 8001fae:	05db      	lsls	r3, r3, #23
 8001fb0:	2101      	movs	r1, #1
 8001fb2:	430a      	orrs	r2, r1
 8001fb4:	619a      	str	r2, [r3, #24]
			    stepp_1.step_up ++;                 //      
 8001fb6:	4b37      	ldr	r3, [pc, #220]	; (8002094 <revers_zero+0x160>)
 8001fb8:	689b      	ldr	r3, [r3, #8]
 8001fba:	1c5a      	adds	r2, r3, #1
 8001fbc:	4b35      	ldr	r3, [pc, #212]	; (8002094 <revers_zero+0x160>)
 8001fbe:	609a      	str	r2, [r3, #8]
			if (GPIOA->IDR & GPIO_IDR_0)            //        ,
 8001fc0:	e00d      	b.n	8001fde <revers_zero+0xaa>
			}
		} else {
			flags.zero_pos1 = TRUE;                 //       
 8001fc2:	4b32      	ldr	r3, [pc, #200]	; (800208c <revers_zero+0x158>)
 8001fc4:	781a      	ldrb	r2, [r3, #0]
 8001fc6:	2101      	movs	r1, #1
 8001fc8:	430a      	orrs	r2, r1
 8001fca:	701a      	strb	r2, [r3, #0]
			STEP1_OFF;                              //     0
 8001fcc:	2390      	movs	r3, #144	; 0x90
 8001fce:	05db      	lsls	r3, r3, #23
 8001fd0:	699a      	ldr	r2, [r3, #24]
 8001fd2:	2390      	movs	r3, #144	; 0x90
 8001fd4:	05db      	lsls	r3, r3, #23
 8001fd6:	2180      	movs	r1, #128	; 0x80
 8001fd8:	0249      	lsls	r1, r1, #9
 8001fda:	430a      	orrs	r2, r1
 8001fdc:	619a      	str	r2, [r3, #24]
		}
		if (!READ_LIM2 && !flags.zero_pos2) {       //   ,   , 
 8001fde:	4b2c      	ldr	r3, [pc, #176]	; (8002090 <revers_zero+0x15c>)
 8001fe0:	691b      	ldr	r3, [r3, #16]
 8001fe2:	2240      	movs	r2, #64	; 0x40
 8001fe4:	4013      	ands	r3, r2
 8001fe6:	d124      	bne.n	8002032 <revers_zero+0xfe>
 8001fe8:	4b28      	ldr	r3, [pc, #160]	; (800208c <revers_zero+0x158>)
 8001fea:	781b      	ldrb	r3, [r3, #0]
 8001fec:	2202      	movs	r2, #2
 8001fee:	4013      	ands	r3, r2
 8001ff0:	b2db      	uxtb	r3, r3
 8001ff2:	2b00      	cmp	r3, #0
 8001ff4:	d11d      	bne.n	8002032 <revers_zero+0xfe>
			if (GPIOA->IDR & GPIO_IDR_1)
 8001ff6:	2390      	movs	r3, #144	; 0x90
 8001ff8:	05db      	lsls	r3, r3, #23
 8001ffa:	691b      	ldr	r3, [r3, #16]
 8001ffc:	2202      	movs	r2, #2
 8001ffe:	4013      	ands	r3, r2
 8002000:	d009      	beq.n	8002016 <revers_zero+0xe2>
				STEP2_OFF;                          //        ,  1   0
 8002002:	2390      	movs	r3, #144	; 0x90
 8002004:	05db      	lsls	r3, r3, #23
 8002006:	699a      	ldr	r2, [r3, #24]
 8002008:	2390      	movs	r3, #144	; 0x90
 800200a:	05db      	lsls	r3, r3, #23
 800200c:	2180      	movs	r1, #128	; 0x80
 800200e:	0289      	lsls	r1, r1, #10
 8002010:	430a      	orrs	r2, r1
 8002012:	619a      	str	r2, [r3, #24]
			if (GPIOA->IDR & GPIO_IDR_1)
 8002014:	e01b      	b.n	800204e <revers_zero+0x11a>
			else {
				STEP2_ON;                           //    0   1  
 8002016:	2390      	movs	r3, #144	; 0x90
 8002018:	05db      	lsls	r3, r3, #23
 800201a:	699a      	ldr	r2, [r3, #24]
 800201c:	2390      	movs	r3, #144	; 0x90
 800201e:	05db      	lsls	r3, r3, #23
 8002020:	2102      	movs	r1, #2
 8002022:	430a      	orrs	r2, r1
 8002024:	619a      	str	r2, [r3, #24]
				stepp_2.step_up ++;
 8002026:	4b1c      	ldr	r3, [pc, #112]	; (8002098 <revers_zero+0x164>)
 8002028:	689b      	ldr	r3, [r3, #8]
 800202a:	1c5a      	adds	r2, r3, #1
 800202c:	4b1a      	ldr	r3, [pc, #104]	; (8002098 <revers_zero+0x164>)
 800202e:	609a      	str	r2, [r3, #8]
			if (GPIOA->IDR & GPIO_IDR_1)
 8002030:	e00d      	b.n	800204e <revers_zero+0x11a>
			}
		} else {
			flags.zero_pos2 = TRUE;                 //       
 8002032:	4b16      	ldr	r3, [pc, #88]	; (800208c <revers_zero+0x158>)
 8002034:	781a      	ldrb	r2, [r3, #0]
 8002036:	2102      	movs	r1, #2
 8002038:	430a      	orrs	r2, r1
 800203a:	701a      	strb	r2, [r3, #0]
			STEP2_OFF;
 800203c:	2390      	movs	r3, #144	; 0x90
 800203e:	05db      	lsls	r3, r3, #23
 8002040:	699a      	ldr	r2, [r3, #24]
 8002042:	2390      	movs	r3, #144	; 0x90
 8002044:	05db      	lsls	r3, r3, #23
 8002046:	2180      	movs	r1, #128	; 0x80
 8002048:	0289      	lsls	r1, r1, #10
 800204a:	430a      	orrs	r2, r1
 800204c:	619a      	str	r2, [r3, #24]
		}
	}

	if (flags.zero_pos1 && flags.zero_pos2) {       //        
 800204e:	4b0f      	ldr	r3, [pc, #60]	; (800208c <revers_zero+0x158>)
 8002050:	781b      	ldrb	r3, [r3, #0]
 8002052:	2201      	movs	r2, #1
 8002054:	4013      	ands	r3, r2
 8002056:	b2db      	uxtb	r3, r3
 8002058:	2b00      	cmp	r3, #0
 800205a:	d014      	beq.n	8002086 <revers_zero+0x152>
 800205c:	4b0b      	ldr	r3, [pc, #44]	; (800208c <revers_zero+0x158>)
 800205e:	781b      	ldrb	r3, [r3, #0]
 8002060:	2202      	movs	r2, #2
 8002062:	4013      	ands	r3, r2
 8002064:	b2db      	uxtb	r3, r3
 8002066:	2b00      	cmp	r3, #0
 8002068:	d00d      	beq.n	8002086 <revers_zero+0x152>
		flags.zero_ok = TRUE;                       //  
 800206a:	4b08      	ldr	r3, [pc, #32]	; (800208c <revers_zero+0x158>)
 800206c:	781a      	ldrb	r2, [r3, #0]
 800206e:	2118      	movs	r1, #24
 8002070:	438a      	bics	r2, r1
 8002072:	1c11      	adds	r1, r2, #0
 8002074:	2208      	movs	r2, #8
 8002076:	430a      	orrs	r2, r1
 8002078:	701a      	strb	r2, [r3, #0]
		CLEAR_BIT(TIM17->DIER, TIM_DIER_UIE);       //    
 800207a:	4b08      	ldr	r3, [pc, #32]	; (800209c <revers_zero+0x168>)
 800207c:	68da      	ldr	r2, [r3, #12]
 800207e:	4b07      	ldr	r3, [pc, #28]	; (800209c <revers_zero+0x168>)
 8002080:	2101      	movs	r1, #1
 8002082:	438a      	bics	r2, r1
 8002084:	60da      	str	r2, [r3, #12]
	}
}
 8002086:	46c0      	nop			; (mov r8, r8)
 8002088:	46bd      	mov	sp, r7
 800208a:	bd80      	pop	{r7, pc}
 800208c:	2000006c 	.word	0x2000006c
 8002090:	48000400 	.word	0x48000400
 8002094:	2000004c 	.word	0x2000004c
 8002098:	2000005c 	.word	0x2000005c
 800209c:	40014800 	.word	0x40014800

080020a0 <new_step_go1>:

static inline void new_step_go1(void) {
 80020a0:	b580      	push	{r7, lr}
 80020a2:	af00      	add	r7, sp, #0
	if (flags.balance_1) {                                   //   
 80020a4:	4b33      	ldr	r3, [pc, #204]	; (8002174 <new_step_go1+0xd4>)
 80020a6:	781b      	ldrb	r3, [r3, #0]
 80020a8:	2220      	movs	r2, #32
 80020aa:	4013      	ands	r3, r2
 80020ac:	b2db      	uxtb	r3, r3
 80020ae:	2b00      	cmp	r3, #0
 80020b0:	d019      	beq.n	80020e6 <new_step_go1+0x46>
		if (stepp_1.curent_steps > stepp_1.last_steps)       //       
 80020b2:	4b31      	ldr	r3, [pc, #196]	; (8002178 <new_step_go1+0xd8>)
 80020b4:	685a      	ldr	r2, [r3, #4]
 80020b6:	4b30      	ldr	r3, [pc, #192]	; (8002178 <new_step_go1+0xd8>)
 80020b8:	681b      	ldr	r3, [r3, #0]
 80020ba:	429a      	cmp	r2, r3
 80020bc:	dd06      	ble.n	80020cc <new_step_go1+0x2c>
			DIR1_ON;                                         //    
 80020be:	4b2f      	ldr	r3, [pc, #188]	; (800217c <new_step_go1+0xdc>)
 80020c0:	699a      	ldr	r2, [r3, #24]
 80020c2:	4b2e      	ldr	r3, [pc, #184]	; (800217c <new_step_go1+0xdc>)
 80020c4:	2120      	movs	r1, #32
 80020c6:	430a      	orrs	r2, r1
 80020c8:	619a      	str	r2, [r3, #24]
 80020ca:	e006      	b.n	80020da <new_step_go1+0x3a>
		else                                                 //   
			DIR1_OFF;                                        //    
 80020cc:	4b2b      	ldr	r3, [pc, #172]	; (800217c <new_step_go1+0xdc>)
 80020ce:	699a      	ldr	r2, [r3, #24]
 80020d0:	4b2a      	ldr	r3, [pc, #168]	; (800217c <new_step_go1+0xdc>)
 80020d2:	2180      	movs	r1, #128	; 0x80
 80020d4:	0389      	lsls	r1, r1, #14
 80020d6:	430a      	orrs	r2, r1
 80020d8:	619a      	str	r2, [r3, #24]
		flags.balance_1 = FALSE;                             //   
 80020da:	4b26      	ldr	r3, [pc, #152]	; (8002174 <new_step_go1+0xd4>)
 80020dc:	781a      	ldrb	r2, [r3, #0]
 80020de:	2120      	movs	r1, #32
 80020e0:	438a      	bics	r2, r1
 80020e2:	701a      	strb	r2, [r3, #0]
			else
				stepp_1.last_steps ++;
			}
		}
	}
}
 80020e4:	e042      	b.n	800216c <new_step_go1+0xcc>
		if (stepp_1.curent_steps == stepp_1.last_steps) {    //      
 80020e6:	4b24      	ldr	r3, [pc, #144]	; (8002178 <new_step_go1+0xd8>)
 80020e8:	685a      	ldr	r2, [r3, #4]
 80020ea:	4b23      	ldr	r3, [pc, #140]	; (8002178 <new_step_go1+0xd8>)
 80020ec:	681b      	ldr	r3, [r3, #0]
 80020ee:	429a      	cmp	r2, r3
 80020f0:	d113      	bne.n	800211a <new_step_go1+0x7a>
			CLEAR_BIT(TIM17->DIER, TIM_DIER_UIE);            //      
 80020f2:	4b23      	ldr	r3, [pc, #140]	; (8002180 <new_step_go1+0xe0>)
 80020f4:	68da      	ldr	r2, [r3, #12]
 80020f6:	4b22      	ldr	r3, [pc, #136]	; (8002180 <new_step_go1+0xe0>)
 80020f8:	2101      	movs	r1, #1
 80020fa:	438a      	bics	r2, r1
 80020fc:	60da      	str	r2, [r3, #12]
			stepp_1.last_steps = stepp_1.curent_steps;       //  
 80020fe:	4b1e      	ldr	r3, [pc, #120]	; (8002178 <new_step_go1+0xd8>)
 8002100:	685a      	ldr	r2, [r3, #4]
 8002102:	4b1d      	ldr	r3, [pc, #116]	; (8002178 <new_step_go1+0xd8>)
 8002104:	601a      	str	r2, [r3, #0]
			STEP1_OFF;                                       //   
 8002106:	2390      	movs	r3, #144	; 0x90
 8002108:	05db      	lsls	r3, r3, #23
 800210a:	699a      	ldr	r2, [r3, #24]
 800210c:	2390      	movs	r3, #144	; 0x90
 800210e:	05db      	lsls	r3, r3, #23
 8002110:	2180      	movs	r1, #128	; 0x80
 8002112:	0249      	lsls	r1, r1, #9
 8002114:	430a      	orrs	r2, r1
 8002116:	619a      	str	r2, [r3, #24]
}
 8002118:	e028      	b.n	800216c <new_step_go1+0xcc>
			if (GPIOA->IDR & GPIO_IDR_0) {                   //  ,   
 800211a:	2390      	movs	r3, #144	; 0x90
 800211c:	05db      	lsls	r3, r3, #23
 800211e:	691b      	ldr	r3, [r3, #16]
 8002120:	2201      	movs	r2, #1
 8002122:	4013      	ands	r3, r2
 8002124:	d009      	beq.n	800213a <new_step_go1+0x9a>
				STEP1_OFF;                                   //    0
 8002126:	2390      	movs	r3, #144	; 0x90
 8002128:	05db      	lsls	r3, r3, #23
 800212a:	699a      	ldr	r2, [r3, #24]
 800212c:	2390      	movs	r3, #144	; 0x90
 800212e:	05db      	lsls	r3, r3, #23
 8002130:	2180      	movs	r1, #128	; 0x80
 8002132:	0249      	lsls	r1, r1, #9
 8002134:	430a      	orrs	r2, r1
 8002136:	619a      	str	r2, [r3, #24]
}
 8002138:	e018      	b.n	800216c <new_step_go1+0xcc>
				STEP1_ON;                                    //    1
 800213a:	2390      	movs	r3, #144	; 0x90
 800213c:	05db      	lsls	r3, r3, #23
 800213e:	699a      	ldr	r2, [r3, #24]
 8002140:	2390      	movs	r3, #144	; 0x90
 8002142:	05db      	lsls	r3, r3, #23
 8002144:	2101      	movs	r1, #1
 8002146:	430a      	orrs	r2, r1
 8002148:	619a      	str	r2, [r3, #24]
			if (stepp_1.curent_steps < stepp_1.last_steps)
 800214a:	4b0b      	ldr	r3, [pc, #44]	; (8002178 <new_step_go1+0xd8>)
 800214c:	685a      	ldr	r2, [r3, #4]
 800214e:	4b0a      	ldr	r3, [pc, #40]	; (8002178 <new_step_go1+0xd8>)
 8002150:	681b      	ldr	r3, [r3, #0]
 8002152:	429a      	cmp	r2, r3
 8002154:	da05      	bge.n	8002162 <new_step_go1+0xc2>
				stepp_1.last_steps --;                       //      
 8002156:	4b08      	ldr	r3, [pc, #32]	; (8002178 <new_step_go1+0xd8>)
 8002158:	681b      	ldr	r3, [r3, #0]
 800215a:	1e5a      	subs	r2, r3, #1
 800215c:	4b06      	ldr	r3, [pc, #24]	; (8002178 <new_step_go1+0xd8>)
 800215e:	601a      	str	r2, [r3, #0]
}
 8002160:	e004      	b.n	800216c <new_step_go1+0xcc>
				stepp_1.last_steps ++;
 8002162:	4b05      	ldr	r3, [pc, #20]	; (8002178 <new_step_go1+0xd8>)
 8002164:	681b      	ldr	r3, [r3, #0]
 8002166:	1c5a      	adds	r2, r3, #1
 8002168:	4b03      	ldr	r3, [pc, #12]	; (8002178 <new_step_go1+0xd8>)
 800216a:	601a      	str	r2, [r3, #0]
}
 800216c:	46c0      	nop			; (mov r8, r8)
 800216e:	46bd      	mov	sp, r7
 8002170:	bd80      	pop	{r7, pc}
 8002172:	46c0      	nop			; (mov r8, r8)
 8002174:	2000006c 	.word	0x2000006c
 8002178:	2000004c 	.word	0x2000004c
 800217c:	48000400 	.word	0x48000400
 8002180:	40014800 	.word	0x40014800

08002184 <new_step_go2>:

static inline void new_step_go2(void) {
 8002184:	b580      	push	{r7, lr}
 8002186:	af00      	add	r7, sp, #0
	if (flags.balance_2) {
 8002188:	4b33      	ldr	r3, [pc, #204]	; (8002258 <new_step_go2+0xd4>)
 800218a:	781b      	ldrb	r3, [r3, #0]
 800218c:	2240      	movs	r2, #64	; 0x40
 800218e:	4013      	ands	r3, r2
 8002190:	b2db      	uxtb	r3, r3
 8002192:	2b00      	cmp	r3, #0
 8002194:	d019      	beq.n	80021ca <new_step_go2+0x46>
		if (stepp_2.curent_steps > stepp_2.last_steps)
 8002196:	4b31      	ldr	r3, [pc, #196]	; (800225c <new_step_go2+0xd8>)
 8002198:	685a      	ldr	r2, [r3, #4]
 800219a:	4b30      	ldr	r3, [pc, #192]	; (800225c <new_step_go2+0xd8>)
 800219c:	681b      	ldr	r3, [r3, #0]
 800219e:	429a      	cmp	r2, r3
 80021a0:	dd06      	ble.n	80021b0 <new_step_go2+0x2c>
			DIR2_ON;                                         //    
 80021a2:	4b2f      	ldr	r3, [pc, #188]	; (8002260 <new_step_go2+0xdc>)
 80021a4:	699a      	ldr	r2, [r3, #24]
 80021a6:	4b2e      	ldr	r3, [pc, #184]	; (8002260 <new_step_go2+0xdc>)
 80021a8:	2110      	movs	r1, #16
 80021aa:	430a      	orrs	r2, r1
 80021ac:	619a      	str	r2, [r3, #24]
 80021ae:	e006      	b.n	80021be <new_step_go2+0x3a>
		else
			DIR2_OFF;                                        //    
 80021b0:	4b2b      	ldr	r3, [pc, #172]	; (8002260 <new_step_go2+0xdc>)
 80021b2:	699a      	ldr	r2, [r3, #24]
 80021b4:	4b2a      	ldr	r3, [pc, #168]	; (8002260 <new_step_go2+0xdc>)
 80021b6:	2180      	movs	r1, #128	; 0x80
 80021b8:	0349      	lsls	r1, r1, #13
 80021ba:	430a      	orrs	r2, r1
 80021bc:	619a      	str	r2, [r3, #24]
		flags.balance_2 = FALSE;
 80021be:	4b26      	ldr	r3, [pc, #152]	; (8002258 <new_step_go2+0xd4>)
 80021c0:	781a      	ldrb	r2, [r3, #0]
 80021c2:	2140      	movs	r1, #64	; 0x40
 80021c4:	438a      	bics	r2, r1
 80021c6:	701a      	strb	r2, [r3, #0]
			else
				stepp_2.last_steps ++;
			}
		}
	}
}
 80021c8:	e042      	b.n	8002250 <new_step_go2+0xcc>
		if (stepp_2.curent_steps == stepp_2.last_steps) {    //      
 80021ca:	4b24      	ldr	r3, [pc, #144]	; (800225c <new_step_go2+0xd8>)
 80021cc:	685a      	ldr	r2, [r3, #4]
 80021ce:	4b23      	ldr	r3, [pc, #140]	; (800225c <new_step_go2+0xd8>)
 80021d0:	681b      	ldr	r3, [r3, #0]
 80021d2:	429a      	cmp	r2, r3
 80021d4:	d113      	bne.n	80021fe <new_step_go2+0x7a>
			CLEAR_BIT(TIM16->DIER, TIM_DIER_UIE);            //      
 80021d6:	4b23      	ldr	r3, [pc, #140]	; (8002264 <new_step_go2+0xe0>)
 80021d8:	68da      	ldr	r2, [r3, #12]
 80021da:	4b22      	ldr	r3, [pc, #136]	; (8002264 <new_step_go2+0xe0>)
 80021dc:	2101      	movs	r1, #1
 80021de:	438a      	bics	r2, r1
 80021e0:	60da      	str	r2, [r3, #12]
			stepp_2.last_steps = stepp_2.curent_steps;       //  
 80021e2:	4b1e      	ldr	r3, [pc, #120]	; (800225c <new_step_go2+0xd8>)
 80021e4:	685a      	ldr	r2, [r3, #4]
 80021e6:	4b1d      	ldr	r3, [pc, #116]	; (800225c <new_step_go2+0xd8>)
 80021e8:	601a      	str	r2, [r3, #0]
			STEP2_OFF;                                       //   
 80021ea:	2390      	movs	r3, #144	; 0x90
 80021ec:	05db      	lsls	r3, r3, #23
 80021ee:	699a      	ldr	r2, [r3, #24]
 80021f0:	2390      	movs	r3, #144	; 0x90
 80021f2:	05db      	lsls	r3, r3, #23
 80021f4:	2180      	movs	r1, #128	; 0x80
 80021f6:	0289      	lsls	r1, r1, #10
 80021f8:	430a      	orrs	r2, r1
 80021fa:	619a      	str	r2, [r3, #24]
}
 80021fc:	e028      	b.n	8002250 <new_step_go2+0xcc>
			if (GPIOA->IDR & GPIO_IDR_1) {                   //  ,   
 80021fe:	2390      	movs	r3, #144	; 0x90
 8002200:	05db      	lsls	r3, r3, #23
 8002202:	691b      	ldr	r3, [r3, #16]
 8002204:	2202      	movs	r2, #2
 8002206:	4013      	ands	r3, r2
 8002208:	d009      	beq.n	800221e <new_step_go2+0x9a>
				STEP2_OFF;                                   //    0
 800220a:	2390      	movs	r3, #144	; 0x90
 800220c:	05db      	lsls	r3, r3, #23
 800220e:	699a      	ldr	r2, [r3, #24]
 8002210:	2390      	movs	r3, #144	; 0x90
 8002212:	05db      	lsls	r3, r3, #23
 8002214:	2180      	movs	r1, #128	; 0x80
 8002216:	0289      	lsls	r1, r1, #10
 8002218:	430a      	orrs	r2, r1
 800221a:	619a      	str	r2, [r3, #24]
}
 800221c:	e018      	b.n	8002250 <new_step_go2+0xcc>
				STEP2_ON;                                    //    1
 800221e:	2390      	movs	r3, #144	; 0x90
 8002220:	05db      	lsls	r3, r3, #23
 8002222:	699a      	ldr	r2, [r3, #24]
 8002224:	2390      	movs	r3, #144	; 0x90
 8002226:	05db      	lsls	r3, r3, #23
 8002228:	2102      	movs	r1, #2
 800222a:	430a      	orrs	r2, r1
 800222c:	619a      	str	r2, [r3, #24]
			if (stepp_2.curent_steps < stepp_2.last_steps)
 800222e:	4b0b      	ldr	r3, [pc, #44]	; (800225c <new_step_go2+0xd8>)
 8002230:	685a      	ldr	r2, [r3, #4]
 8002232:	4b0a      	ldr	r3, [pc, #40]	; (800225c <new_step_go2+0xd8>)
 8002234:	681b      	ldr	r3, [r3, #0]
 8002236:	429a      	cmp	r2, r3
 8002238:	da05      	bge.n	8002246 <new_step_go2+0xc2>
				stepp_2.last_steps --;                       //      
 800223a:	4b08      	ldr	r3, [pc, #32]	; (800225c <new_step_go2+0xd8>)
 800223c:	681b      	ldr	r3, [r3, #0]
 800223e:	1e5a      	subs	r2, r3, #1
 8002240:	4b06      	ldr	r3, [pc, #24]	; (800225c <new_step_go2+0xd8>)
 8002242:	601a      	str	r2, [r3, #0]
}
 8002244:	e004      	b.n	8002250 <new_step_go2+0xcc>
				stepp_2.last_steps ++;
 8002246:	4b05      	ldr	r3, [pc, #20]	; (800225c <new_step_go2+0xd8>)
 8002248:	681b      	ldr	r3, [r3, #0]
 800224a:	1c5a      	adds	r2, r3, #1
 800224c:	4b03      	ldr	r3, [pc, #12]	; (800225c <new_step_go2+0xd8>)
 800224e:	601a      	str	r2, [r3, #0]
}
 8002250:	46c0      	nop			; (mov r8, r8)
 8002252:	46bd      	mov	sp, r7
 8002254:	bd80      	pop	{r7, pc}
 8002256:	46c0      	nop			; (mov r8, r8)
 8002258:	2000006c 	.word	0x2000006c
 800225c:	2000005c 	.word	0x2000005c
 8002260:	48000400 	.word	0x48000400
 8002264:	40014400 	.word	0x40014400

08002268 <TIM17_IRQHandler>:

void TIM17_IRQHandler(void) {
 8002268:	b580      	push	{r7, lr}
 800226a:	af00      	add	r7, sp, #0
	TIM17->SR &= ~TIM_SR_UIF;                                //   
 800226c:	4b0f      	ldr	r3, [pc, #60]	; (80022ac <TIM17_IRQHandler+0x44>)
 800226e:	691a      	ldr	r2, [r3, #16]
 8002270:	4b0e      	ldr	r3, [pc, #56]	; (80022ac <TIM17_IRQHandler+0x44>)
 8002272:	2101      	movs	r1, #1
 8002274:	438a      	bics	r2, r1
 8002276:	611a      	str	r2, [r3, #16]
	if (flags.zero_ok == 0) {
 8002278:	4b0d      	ldr	r3, [pc, #52]	; (80022b0 <TIM17_IRQHandler+0x48>)
 800227a:	781b      	ldrb	r3, [r3, #0]
 800227c:	2218      	movs	r2, #24
 800227e:	4013      	ands	r3, r2
 8002280:	b2db      	uxtb	r3, r3
 8002282:	2b00      	cmp	r3, #0
 8002284:	d102      	bne.n	800228c <TIM17_IRQHandler+0x24>
		search_zero();
 8002286:	f7ff fd8f 	bl	8001da8 <search_zero>
	} else if (flags.zero_ok == 1) {
		new_step_go1();
	} else {
		revers_zero ();
	}
}
 800228a:	e00b      	b.n	80022a4 <TIM17_IRQHandler+0x3c>
	} else if (flags.zero_ok == 1) {
 800228c:	4b08      	ldr	r3, [pc, #32]	; (80022b0 <TIM17_IRQHandler+0x48>)
 800228e:	781b      	ldrb	r3, [r3, #0]
 8002290:	2218      	movs	r2, #24
 8002292:	4013      	ands	r3, r2
 8002294:	b2db      	uxtb	r3, r3
 8002296:	2b08      	cmp	r3, #8
 8002298:	d102      	bne.n	80022a0 <TIM17_IRQHandler+0x38>
		new_step_go1();
 800229a:	f7ff ff01 	bl	80020a0 <new_step_go1>
}
 800229e:	e001      	b.n	80022a4 <TIM17_IRQHandler+0x3c>
		revers_zero ();
 80022a0:	f7ff fe48 	bl	8001f34 <revers_zero>
}
 80022a4:	46c0      	nop			; (mov r8, r8)
 80022a6:	46bd      	mov	sp, r7
 80022a8:	bd80      	pop	{r7, pc}
 80022aa:	46c0      	nop			; (mov r8, r8)
 80022ac:	40014800 	.word	0x40014800
 80022b0:	2000006c 	.word	0x2000006c

080022b4 <TIM16_IRQHandler>:

void TIM16_IRQHandler(void) {
 80022b4:	b580      	push	{r7, lr}
 80022b6:	af00      	add	r7, sp, #0
	TIM16->SR &= ~TIM_SR_UIF;                                //   
 80022b8:	4b05      	ldr	r3, [pc, #20]	; (80022d0 <TIM16_IRQHandler+0x1c>)
 80022ba:	691a      	ldr	r2, [r3, #16]
 80022bc:	4b04      	ldr	r3, [pc, #16]	; (80022d0 <TIM16_IRQHandler+0x1c>)
 80022be:	2101      	movs	r1, #1
 80022c0:	438a      	bics	r2, r1
 80022c2:	611a      	str	r2, [r3, #16]
	new_step_go2();
 80022c4:	f7ff ff5e 	bl	8002184 <new_step_go2>
}
 80022c8:	46c0      	nop			; (mov r8, r8)
 80022ca:	46bd      	mov	sp, r7
 80022cc:	bd80      	pop	{r7, pc}
 80022ce:	46c0      	nop			; (mov r8, r8)
 80022d0:	40014400 	.word	0x40014400

080022d4 <stepper>:

uint32_t stepper( int32_t stepper, uint32_t num_motor) {
 80022d4:	b580      	push	{r7, lr}
 80022d6:	b082      	sub	sp, #8
 80022d8:	af00      	add	r7, sp, #0
 80022da:	6078      	str	r0, [r7, #4]
 80022dc:	6039      	str	r1, [r7, #0]
	if (num_motor > 1) return 0;
 80022de:	683b      	ldr	r3, [r7, #0]
 80022e0:	2b01      	cmp	r3, #1
 80022e2:	d901      	bls.n	80022e8 <stepper+0x14>
 80022e4:	2300      	movs	r3, #0
 80022e6:	e028      	b.n	800233a <stepper+0x66>
	if (num_motor == 0) {
 80022e8:	683b      	ldr	r3, [r7, #0]
 80022ea:	2b00      	cmp	r3, #0
 80022ec:	d110      	bne.n	8002310 <stepper+0x3c>
		stepp_1.curent_steps = stepper;
 80022ee:	4b15      	ldr	r3, [pc, #84]	; (8002344 <stepper+0x70>)
 80022f0:	687a      	ldr	r2, [r7, #4]
 80022f2:	605a      	str	r2, [r3, #4]
		flags.balance_1 = 1;
 80022f4:	4b14      	ldr	r3, [pc, #80]	; (8002348 <stepper+0x74>)
 80022f6:	781a      	ldrb	r2, [r3, #0]
 80022f8:	2120      	movs	r1, #32
 80022fa:	430a      	orrs	r2, r1
 80022fc:	701a      	strb	r2, [r3, #0]
		CLEAR_REG(TIM17->CNT);                        //    
 80022fe:	4b13      	ldr	r3, [pc, #76]	; (800234c <stepper+0x78>)
 8002300:	2200      	movs	r2, #0
 8002302:	625a      	str	r2, [r3, #36]	; 0x24
	    SET_BIT(TIM17->DIER, TIM_DIER_UIE);           //    
 8002304:	4b11      	ldr	r3, [pc, #68]	; (800234c <stepper+0x78>)
 8002306:	68da      	ldr	r2, [r3, #12]
 8002308:	4b10      	ldr	r3, [pc, #64]	; (800234c <stepper+0x78>)
 800230a:	2101      	movs	r1, #1
 800230c:	430a      	orrs	r2, r1
 800230e:	60da      	str	r2, [r3, #12]
	}
	if (num_motor == 1) {
 8002310:	683b      	ldr	r3, [r7, #0]
 8002312:	2b01      	cmp	r3, #1
 8002314:	d110      	bne.n	8002338 <stepper+0x64>
		stepp_2.curent_steps = stepper;
 8002316:	4b0e      	ldr	r3, [pc, #56]	; (8002350 <stepper+0x7c>)
 8002318:	687a      	ldr	r2, [r7, #4]
 800231a:	605a      	str	r2, [r3, #4]
		flags.balance_2 = 1;
 800231c:	4b0a      	ldr	r3, [pc, #40]	; (8002348 <stepper+0x74>)
 800231e:	781a      	ldrb	r2, [r3, #0]
 8002320:	2140      	movs	r1, #64	; 0x40
 8002322:	430a      	orrs	r2, r1
 8002324:	701a      	strb	r2, [r3, #0]
		CLEAR_REG(TIM16->CNT);                        //    
 8002326:	4b0b      	ldr	r3, [pc, #44]	; (8002354 <stepper+0x80>)
 8002328:	2200      	movs	r2, #0
 800232a:	625a      	str	r2, [r3, #36]	; 0x24
	    SET_BIT(TIM16->DIER, TIM_DIER_UIE);           //    
 800232c:	4b09      	ldr	r3, [pc, #36]	; (8002354 <stepper+0x80>)
 800232e:	68da      	ldr	r2, [r3, #12]
 8002330:	4b08      	ldr	r3, [pc, #32]	; (8002354 <stepper+0x80>)
 8002332:	2101      	movs	r1, #1
 8002334:	430a      	orrs	r2, r1
 8002336:	60da      	str	r2, [r3, #12]
	}
	return 1;
 8002338:	2301      	movs	r3, #1
}
 800233a:	0018      	movs	r0, r3
 800233c:	46bd      	mov	sp, r7
 800233e:	b002      	add	sp, #8
 8002340:	bd80      	pop	{r7, pc}
 8002342:	46c0      	nop			; (mov r8, r8)
 8002344:	2000004c 	.word	0x2000004c
 8002348:	2000006c 	.word	0x2000006c
 800234c:	40014800 	.word	0x40014800
 8002350:	2000005c 	.word	0x2000005c
 8002354:	40014400 	.word	0x40014400

08002358 <extrn_step>:

uint32_t extrn_step(uint32_t stepper, uint32_t num_motor){
 8002358:	b580      	push	{r7, lr}
 800235a:	b082      	sub	sp, #8
 800235c:	af00      	add	r7, sp, #0
 800235e:	6078      	str	r0, [r7, #4]
 8002360:	6039      	str	r1, [r7, #0]
	if (num_motor > 1) return 0;
 8002362:	683b      	ldr	r3, [r7, #0]
 8002364:	2b01      	cmp	r3, #1
 8002366:	d901      	bls.n	800236c <extrn_step+0x14>
 8002368:	2300      	movs	r3, #0
 800236a:	e028      	b.n	80023be <extrn_step+0x66>
	//if (stepper > RESOLUTION) return 0;
	if (num_motor == 0) {
 800236c:	683b      	ldr	r3, [r7, #0]
 800236e:	2b00      	cmp	r3, #0
 8002370:	d110      	bne.n	8002394 <extrn_step+0x3c>
		//stepp_1.curent_steps = map (stepper, 0, RESOLUTION, (stepp_1.step_up<<4)-PROTECT, (stepp_1.step_down<<4)-PROTECT); // >>1        2 
		stepp_1.curent_steps = stepper;
 8002372:	687a      	ldr	r2, [r7, #4]
 8002374:	4b14      	ldr	r3, [pc, #80]	; (80023c8 <extrn_step+0x70>)
 8002376:	605a      	str	r2, [r3, #4]
		flags.balance_1 = 1;
 8002378:	4b14      	ldr	r3, [pc, #80]	; (80023cc <extrn_step+0x74>)
 800237a:	781a      	ldrb	r2, [r3, #0]
 800237c:	2120      	movs	r1, #32
 800237e:	430a      	orrs	r2, r1
 8002380:	701a      	strb	r2, [r3, #0]
		CLEAR_REG(TIM17->CNT);                        //    
 8002382:	4b13      	ldr	r3, [pc, #76]	; (80023d0 <extrn_step+0x78>)
 8002384:	2200      	movs	r2, #0
 8002386:	625a      	str	r2, [r3, #36]	; 0x24
	    SET_BIT(TIM17->DIER, TIM_DIER_UIE);           //    
 8002388:	4b11      	ldr	r3, [pc, #68]	; (80023d0 <extrn_step+0x78>)
 800238a:	68da      	ldr	r2, [r3, #12]
 800238c:	4b10      	ldr	r3, [pc, #64]	; (80023d0 <extrn_step+0x78>)
 800238e:	2101      	movs	r1, #1
 8002390:	430a      	orrs	r2, r1
 8002392:	60da      	str	r2, [r3, #12]
	}
	if (num_motor == 1) {
 8002394:	683b      	ldr	r3, [r7, #0]
 8002396:	2b01      	cmp	r3, #1
 8002398:	d110      	bne.n	80023bc <extrn_step+0x64>
		//stepp_2.curent_steps = map (stepper, 0,RESOLUTION, (stepp_2.step_down<<4)-PROTECT, (stepp_2.step_up<<4)-PROTECT); //    32    4
		stepp_2.curent_steps = stepper;
 800239a:	687a      	ldr	r2, [r7, #4]
 800239c:	4b0d      	ldr	r3, [pc, #52]	; (80023d4 <extrn_step+0x7c>)
 800239e:	605a      	str	r2, [r3, #4]
		flags.balance_2 = 1;     //          2        2,      16
 80023a0:	4b0a      	ldr	r3, [pc, #40]	; (80023cc <extrn_step+0x74>)
 80023a2:	781a      	ldrb	r2, [r3, #0]
 80023a4:	2140      	movs	r1, #64	; 0x40
 80023a6:	430a      	orrs	r2, r1
 80023a8:	701a      	strb	r2, [r3, #0]
		CLEAR_REG(TIM16->CNT);                        //    
 80023aa:	4b0b      	ldr	r3, [pc, #44]	; (80023d8 <extrn_step+0x80>)
 80023ac:	2200      	movs	r2, #0
 80023ae:	625a      	str	r2, [r3, #36]	; 0x24
	    SET_BIT(TIM16->DIER, TIM_DIER_UIE);           //    
 80023b0:	4b09      	ldr	r3, [pc, #36]	; (80023d8 <extrn_step+0x80>)
 80023b2:	68da      	ldr	r2, [r3, #12]
 80023b4:	4b08      	ldr	r3, [pc, #32]	; (80023d8 <extrn_step+0x80>)
 80023b6:	2101      	movs	r1, #1
 80023b8:	430a      	orrs	r2, r1
 80023ba:	60da      	str	r2, [r3, #12]
	}
	return 1;
 80023bc:	2301      	movs	r3, #1
}
 80023be:	0018      	movs	r0, r3
 80023c0:	46bd      	mov	sp, r7
 80023c2:	b002      	add	sp, #8
 80023c4:	bd80      	pop	{r7, pc}
 80023c6:	46c0      	nop			; (mov r8, r8)
 80023c8:	2000004c 	.word	0x2000004c
 80023cc:	2000006c 	.word	0x2000006c
 80023d0:	40014800 	.word	0x40014800
 80023d4:	2000005c 	.word	0x2000005c
 80023d8:	40014400 	.word	0x40014400

080023dc <max_step>:

uint32_t max_step (uint32_t num_motor) {              //    
 80023dc:	b580      	push	{r7, lr}
 80023de:	b082      	sub	sp, #8
 80023e0:	af00      	add	r7, sp, #0
 80023e2:	6078      	str	r0, [r7, #4]
	if (num_motor == 1) {
 80023e4:	687b      	ldr	r3, [r7, #4]
 80023e6:	2b01      	cmp	r3, #1
 80023e8:	d108      	bne.n	80023fc <max_step+0x20>
		return (stepp_1.step_down << 5)  + (stepp_1.step_up << 5);
 80023ea:	4b0d      	ldr	r3, [pc, #52]	; (8002420 <max_step+0x44>)
 80023ec:	68db      	ldr	r3, [r3, #12]
 80023ee:	015b      	lsls	r3, r3, #5
 80023f0:	001a      	movs	r2, r3
 80023f2:	4b0b      	ldr	r3, [pc, #44]	; (8002420 <max_step+0x44>)
 80023f4:	689b      	ldr	r3, [r3, #8]
 80023f6:	015b      	lsls	r3, r3, #5
 80023f8:	18d3      	adds	r3, r2, r3
 80023fa:	e00c      	b.n	8002416 <max_step+0x3a>
	}
	if (num_motor == 2) {
 80023fc:	687b      	ldr	r3, [r7, #4]
 80023fe:	2b02      	cmp	r3, #2
 8002400:	d108      	bne.n	8002414 <max_step+0x38>
		return (stepp_2.step_down << 5) + (stepp_2.step_up << 5);
 8002402:	4b08      	ldr	r3, [pc, #32]	; (8002424 <max_step+0x48>)
 8002404:	68db      	ldr	r3, [r3, #12]
 8002406:	015b      	lsls	r3, r3, #5
 8002408:	001a      	movs	r2, r3
 800240a:	4b06      	ldr	r3, [pc, #24]	; (8002424 <max_step+0x48>)
 800240c:	689b      	ldr	r3, [r3, #8]
 800240e:	015b      	lsls	r3, r3, #5
 8002410:	18d3      	adds	r3, r2, r3
 8002412:	e000      	b.n	8002416 <max_step+0x3a>
	}
	return 0;
 8002414:	2300      	movs	r3, #0
}
 8002416:	0018      	movs	r0, r3
 8002418:	46bd      	mov	sp, r7
 800241a:	b002      	add	sp, #8
 800241c:	bd80      	pop	{r7, pc}
 800241e:	46c0      	nop			; (mov r8, r8)
 8002420:	2000004c 	.word	0x2000004c
 8002424:	2000005c 	.word	0x2000005c

08002428 <init_struct>:

void init_struct (void){                         //  
 8002428:	b580      	push	{r7, lr}
 800242a:	af00      	add	r7, sp, #0
	flags.ir_filter = TRUE;
 800242c:	4b1c      	ldr	r3, [pc, #112]	; (80024a0 <init_struct+0x78>)
 800242e:	781a      	ldrb	r2, [r3, #0]
 8002430:	2180      	movs	r1, #128	; 0x80
 8002432:	4249      	negs	r1, r1
 8002434:	430a      	orrs	r2, r1
 8002436:	701a      	strb	r2, [r3, #0]
	flags.iris_drive = FALSE;
 8002438:	4b19      	ldr	r3, [pc, #100]	; (80024a0 <init_struct+0x78>)
 800243a:	785a      	ldrb	r2, [r3, #1]
 800243c:	2101      	movs	r1, #1
 800243e:	438a      	bics	r2, r1
 8002440:	705a      	strb	r2, [r3, #1]
	flags.zero_ok = TRUE;                        //       
 8002442:	4b17      	ldr	r3, [pc, #92]	; (80024a0 <init_struct+0x78>)
 8002444:	781a      	ldrb	r2, [r3, #0]
 8002446:	2118      	movs	r1, #24
 8002448:	438a      	bics	r2, r1
 800244a:	1c11      	adds	r1, r2, #0
 800244c:	2208      	movs	r2, #8
 800244e:	430a      	orrs	r2, r1
 8002450:	701a      	strb	r2, [r3, #0]
	flags.zero_in_programm = FALSE;
 8002452:	4b13      	ldr	r3, [pc, #76]	; (80024a0 <init_struct+0x78>)
 8002454:	789a      	ldrb	r2, [r3, #2]
 8002456:	2102      	movs	r1, #2
 8002458:	438a      	bics	r2, r1
 800245a:	709a      	strb	r2, [r3, #2]
	flags.reset_setting = TRUE;
 800245c:	4b10      	ldr	r3, [pc, #64]	; (80024a0 <init_struct+0x78>)
 800245e:	789a      	ldrb	r2, [r3, #2]
 8002460:	2104      	movs	r1, #4
 8002462:	430a      	orrs	r2, r1
 8002464:	709a      	strb	r2, [r3, #2]
	flags.change_pin_conf = FALSE;
 8002466:	4b0e      	ldr	r3, [pc, #56]	; (80024a0 <init_struct+0x78>)
 8002468:	789a      	ldrb	r2, [r3, #2]
 800246a:	2140      	movs	r1, #64	; 0x40
 800246c:	438a      	bics	r2, r1
 800246e:	709a      	strb	r2, [r3, #2]
	flags.iwdt_res = FALSE;
 8002470:	4b0b      	ldr	r3, [pc, #44]	; (80024a0 <init_struct+0x78>)
 8002472:	789a      	ldrb	r2, [r3, #2]
 8002474:	2108      	movs	r1, #8
 8002476:	438a      	bics	r2, r1
 8002478:	709a      	strb	r2, [r3, #2]
	stepp_1.last_steps = 0;                      //         -8000
 800247a:	4b0a      	ldr	r3, [pc, #40]	; (80024a4 <init_struct+0x7c>)
 800247c:	2200      	movs	r2, #0
 800247e:	601a      	str	r2, [r3, #0]
	stepp_2.last_steps = 0;
 8002480:	4b09      	ldr	r3, [pc, #36]	; (80024a8 <init_struct+0x80>)
 8002482:	2200      	movs	r2, #0
 8002484:	601a      	str	r2, [r3, #0]
	STEP3_OFF;                                   // ?
 8002486:	2390      	movs	r3, #144	; 0x90
 8002488:	05db      	lsls	r3, r3, #23
 800248a:	699a      	ldr	r2, [r3, #24]
 800248c:	2390      	movs	r3, #144	; 0x90
 800248e:	05db      	lsls	r3, r3, #23
 8002490:	2180      	movs	r1, #128	; 0x80
 8002492:	0409      	lsls	r1, r1, #16
 8002494:	430a      	orrs	r2, r1
 8002496:	619a      	str	r2, [r3, #24]
}
 8002498:	46c0      	nop			; (mov r8, r8)
 800249a:	46bd      	mov	sp, r7
 800249c:	bd80      	pop	{r7, pc}
 800249e:	46c0      	nop			; (mov r8, r8)
 80024a0:	2000006c 	.word	0x2000006c
 80024a4:	2000004c 	.word	0x2000004c
 80024a8:	2000005c 	.word	0x2000005c

080024ac <zero_position>:

void zero_position(void) {
 80024ac:	b580      	push	{r7, lr}
 80024ae:	af00      	add	r7, sp, #0
	CLEAR_REG(TIM16->CNT);                        //    
 80024b0:	4b17      	ldr	r3, [pc, #92]	; (8002510 <zero_position+0x64>)
 80024b2:	2200      	movs	r2, #0
 80024b4:	625a      	str	r2, [r3, #36]	; 0x24
	CLEAR_BIT(TIM16->DIER, TIM_DIER_UIE);         //    
 80024b6:	4b16      	ldr	r3, [pc, #88]	; (8002510 <zero_position+0x64>)
 80024b8:	68da      	ldr	r2, [r3, #12]
 80024ba:	4b15      	ldr	r3, [pc, #84]	; (8002510 <zero_position+0x64>)
 80024bc:	2101      	movs	r1, #1
 80024be:	438a      	bics	r2, r1
 80024c0:	60da      	str	r2, [r3, #12]
	flags.zero_ok = FALSE;
 80024c2:	4b14      	ldr	r3, [pc, #80]	; (8002514 <zero_position+0x68>)
 80024c4:	781a      	ldrb	r2, [r3, #0]
 80024c6:	2118      	movs	r1, #24
 80024c8:	438a      	bics	r2, r1
 80024ca:	701a      	strb	r2, [r3, #0]
	flags.zero_pos1 = FALSE;
 80024cc:	4b11      	ldr	r3, [pc, #68]	; (8002514 <zero_position+0x68>)
 80024ce:	781a      	ldrb	r2, [r3, #0]
 80024d0:	2101      	movs	r1, #1
 80024d2:	438a      	bics	r2, r1
 80024d4:	701a      	strb	r2, [r3, #0]
	flags.zero_pos2 = FALSE;
 80024d6:	4b0f      	ldr	r3, [pc, #60]	; (8002514 <zero_position+0x68>)
 80024d8:	781a      	ldrb	r2, [r3, #0]
 80024da:	2102      	movs	r1, #2
 80024dc:	438a      	bics	r2, r1
 80024de:	701a      	strb	r2, [r3, #0]
	flags.start_zero = FALSE;
 80024e0:	4b0c      	ldr	r3, [pc, #48]	; (8002514 <zero_position+0x68>)
 80024e2:	781a      	ldrb	r2, [r3, #0]
 80024e4:	2104      	movs	r1, #4
 80024e6:	438a      	bics	r2, r1
 80024e8:	701a      	strb	r2, [r3, #0]
	stepp_1.step_down = 0;                        //    ""
 80024ea:	4b0b      	ldr	r3, [pc, #44]	; (8002518 <zero_position+0x6c>)
 80024ec:	2200      	movs	r2, #0
 80024ee:	60da      	str	r2, [r3, #12]
	stepp_2.step_down = 0;
 80024f0:	4b0a      	ldr	r3, [pc, #40]	; (800251c <zero_position+0x70>)
 80024f2:	2200      	movs	r2, #0
 80024f4:	60da      	str	r2, [r3, #12]
	CLEAR_REG(TIM17->CNT);                        //    
 80024f6:	4b0a      	ldr	r3, [pc, #40]	; (8002520 <zero_position+0x74>)
 80024f8:	2200      	movs	r2, #0
 80024fa:	625a      	str	r2, [r3, #36]	; 0x24
	SET_BIT(TIM17->DIER, TIM_DIER_UIE);           //    
 80024fc:	4b08      	ldr	r3, [pc, #32]	; (8002520 <zero_position+0x74>)
 80024fe:	68da      	ldr	r2, [r3, #12]
 8002500:	4b07      	ldr	r3, [pc, #28]	; (8002520 <zero_position+0x74>)
 8002502:	2101      	movs	r1, #1
 8002504:	430a      	orrs	r2, r1
 8002506:	60da      	str	r2, [r3, #12]
}
 8002508:	46c0      	nop			; (mov r8, r8)
 800250a:	46bd      	mov	sp, r7
 800250c:	bd80      	pop	{r7, pc}
 800250e:	46c0      	nop			; (mov r8, r8)
 8002510:	40014400 	.word	0x40014400
 8002514:	2000006c 	.word	0x2000006c
 8002518:	2000004c 	.word	0x2000004c
 800251c:	2000005c 	.word	0x2000005c
 8002520:	40014800 	.word	0x40014800

08002524 <search_steps>:

void search_steps (void) {                        //     
 8002524:	b580      	push	{r7, lr}
 8002526:	af00      	add	r7, sp, #0
	CLEAR_REG(TIM16->CNT);                        //    
 8002528:	4b18      	ldr	r3, [pc, #96]	; (800258c <search_steps+0x68>)
 800252a:	2200      	movs	r2, #0
 800252c:	625a      	str	r2, [r3, #36]	; 0x24
	CLEAR_BIT(TIM16->DIER, TIM_DIER_UIE);         //    
 800252e:	4b17      	ldr	r3, [pc, #92]	; (800258c <search_steps+0x68>)
 8002530:	68da      	ldr	r2, [r3, #12]
 8002532:	4b16      	ldr	r3, [pc, #88]	; (800258c <search_steps+0x68>)
 8002534:	2101      	movs	r1, #1
 8002536:	438a      	bics	r2, r1
 8002538:	60da      	str	r2, [r3, #12]
	stepp_1.step_up = 0;                          //    ""
 800253a:	4b15      	ldr	r3, [pc, #84]	; (8002590 <search_steps+0x6c>)
 800253c:	2200      	movs	r2, #0
 800253e:	609a      	str	r2, [r3, #8]
	stepp_2.step_up = 0;
 8002540:	4b14      	ldr	r3, [pc, #80]	; (8002594 <search_steps+0x70>)
 8002542:	2200      	movs	r2, #0
 8002544:	609a      	str	r2, [r3, #8]
	flags.zero_ok = 2;
 8002546:	4b14      	ldr	r3, [pc, #80]	; (8002598 <search_steps+0x74>)
 8002548:	781a      	ldrb	r2, [r3, #0]
 800254a:	2118      	movs	r1, #24
 800254c:	438a      	bics	r2, r1
 800254e:	1c11      	adds	r1, r2, #0
 8002550:	2210      	movs	r2, #16
 8002552:	430a      	orrs	r2, r1
 8002554:	701a      	strb	r2, [r3, #0]
	flags.zero_pos1 = FALSE;
 8002556:	4b10      	ldr	r3, [pc, #64]	; (8002598 <search_steps+0x74>)
 8002558:	781a      	ldrb	r2, [r3, #0]
 800255a:	2101      	movs	r1, #1
 800255c:	438a      	bics	r2, r1
 800255e:	701a      	strb	r2, [r3, #0]
	flags.zero_pos2 = FALSE;
 8002560:	4b0d      	ldr	r3, [pc, #52]	; (8002598 <search_steps+0x74>)
 8002562:	781a      	ldrb	r2, [r3, #0]
 8002564:	2102      	movs	r1, #2
 8002566:	438a      	bics	r2, r1
 8002568:	701a      	strb	r2, [r3, #0]
	flags.start_zero = FALSE;                     //      
 800256a:	4b0b      	ldr	r3, [pc, #44]	; (8002598 <search_steps+0x74>)
 800256c:	781a      	ldrb	r2, [r3, #0]
 800256e:	2104      	movs	r1, #4
 8002570:	438a      	bics	r2, r1
 8002572:	701a      	strb	r2, [r3, #0]
	CLEAR_REG(TIM17->CNT);                        //    
 8002574:	4b09      	ldr	r3, [pc, #36]	; (800259c <search_steps+0x78>)
 8002576:	2200      	movs	r2, #0
 8002578:	625a      	str	r2, [r3, #36]	; 0x24
	SET_BIT(TIM17->DIER, TIM_DIER_UIE);           //    
 800257a:	4b08      	ldr	r3, [pc, #32]	; (800259c <search_steps+0x78>)
 800257c:	68da      	ldr	r2, [r3, #12]
 800257e:	4b07      	ldr	r3, [pc, #28]	; (800259c <search_steps+0x78>)
 8002580:	2101      	movs	r1, #1
 8002582:	430a      	orrs	r2, r1
 8002584:	60da      	str	r2, [r3, #12]

}
 8002586:	46c0      	nop			; (mov r8, r8)
 8002588:	46bd      	mov	sp, r7
 800258a:	bd80      	pop	{r7, pc}
 800258c:	40014400 	.word	0x40014400
 8002590:	2000004c 	.word	0x2000004c
 8002594:	2000005c 	.word	0x2000005c
 8002598:	2000006c 	.word	0x2000006c
 800259c:	40014800 	.word	0x40014800

080025a0 <__NVIC_EnableIRQ>:
{
 80025a0:	b580      	push	{r7, lr}
 80025a2:	b082      	sub	sp, #8
 80025a4:	af00      	add	r7, sp, #0
 80025a6:	0002      	movs	r2, r0
 80025a8:	1dfb      	adds	r3, r7, #7
 80025aa:	701a      	strb	r2, [r3, #0]
  if ((int32_t)(IRQn) >= 0)
 80025ac:	1dfb      	adds	r3, r7, #7
 80025ae:	781b      	ldrb	r3, [r3, #0]
 80025b0:	2b7f      	cmp	r3, #127	; 0x7f
 80025b2:	d809      	bhi.n	80025c8 <__NVIC_EnableIRQ+0x28>
    NVIC->ISER[0U] = (uint32_t)(1UL << (((uint32_t)IRQn) & 0x1FUL));
 80025b4:	1dfb      	adds	r3, r7, #7
 80025b6:	781b      	ldrb	r3, [r3, #0]
 80025b8:	001a      	movs	r2, r3
 80025ba:	231f      	movs	r3, #31
 80025bc:	401a      	ands	r2, r3
 80025be:	4b04      	ldr	r3, [pc, #16]	; (80025d0 <__NVIC_EnableIRQ+0x30>)
 80025c0:	2101      	movs	r1, #1
 80025c2:	4091      	lsls	r1, r2
 80025c4:	000a      	movs	r2, r1
 80025c6:	601a      	str	r2, [r3, #0]
}
 80025c8:	46c0      	nop			; (mov r8, r8)
 80025ca:	46bd      	mov	sp, r7
 80025cc:	b002      	add	sp, #8
 80025ce:	bd80      	pop	{r7, pc}
 80025d0:	e000e100 	.word	0xe000e100

080025d4 <__NVIC_SetPriority>:
{
 80025d4:	b590      	push	{r4, r7, lr}
 80025d6:	b083      	sub	sp, #12
 80025d8:	af00      	add	r7, sp, #0
 80025da:	0002      	movs	r2, r0
 80025dc:	6039      	str	r1, [r7, #0]
 80025de:	1dfb      	adds	r3, r7, #7
 80025e0:	701a      	strb	r2, [r3, #0]
  if ((int32_t)(IRQn) >= 0)
 80025e2:	1dfb      	adds	r3, r7, #7
 80025e4:	781b      	ldrb	r3, [r3, #0]
 80025e6:	2b7f      	cmp	r3, #127	; 0x7f
 80025e8:	d828      	bhi.n	800263c <__NVIC_SetPriority+0x68>
    NVIC->IP[_IP_IDX(IRQn)]  = ((uint32_t)(NVIC->IP[_IP_IDX(IRQn)]  & ~(0xFFUL << _BIT_SHIFT(IRQn))) |
 80025ea:	4a2f      	ldr	r2, [pc, #188]	; (80026a8 <__NVIC_SetPriority+0xd4>)
 80025ec:	1dfb      	adds	r3, r7, #7
 80025ee:	781b      	ldrb	r3, [r3, #0]
 80025f0:	b25b      	sxtb	r3, r3
 80025f2:	089b      	lsrs	r3, r3, #2
 80025f4:	33c0      	adds	r3, #192	; 0xc0
 80025f6:	009b      	lsls	r3, r3, #2
 80025f8:	589b      	ldr	r3, [r3, r2]
 80025fa:	1dfa      	adds	r2, r7, #7
 80025fc:	7812      	ldrb	r2, [r2, #0]
 80025fe:	0011      	movs	r1, r2
 8002600:	2203      	movs	r2, #3
 8002602:	400a      	ands	r2, r1
 8002604:	00d2      	lsls	r2, r2, #3
 8002606:	21ff      	movs	r1, #255	; 0xff
 8002608:	4091      	lsls	r1, r2
 800260a:	000a      	movs	r2, r1
 800260c:	43d2      	mvns	r2, r2
 800260e:	401a      	ands	r2, r3
 8002610:	0011      	movs	r1, r2
       (((priority << (8U - __NVIC_PRIO_BITS)) & (uint32_t)0xFFUL) << _BIT_SHIFT(IRQn)));
 8002612:	683b      	ldr	r3, [r7, #0]
 8002614:	019b      	lsls	r3, r3, #6
 8002616:	22ff      	movs	r2, #255	; 0xff
 8002618:	401a      	ands	r2, r3
 800261a:	1dfb      	adds	r3, r7, #7
 800261c:	781b      	ldrb	r3, [r3, #0]
 800261e:	0018      	movs	r0, r3
 8002620:	2303      	movs	r3, #3
 8002622:	4003      	ands	r3, r0
 8002624:	00db      	lsls	r3, r3, #3
 8002626:	409a      	lsls	r2, r3
    NVIC->IP[_IP_IDX(IRQn)]  = ((uint32_t)(NVIC->IP[_IP_IDX(IRQn)]  & ~(0xFFUL << _BIT_SHIFT(IRQn))) |
 8002628:	481f      	ldr	r0, [pc, #124]	; (80026a8 <__NVIC_SetPriority+0xd4>)
 800262a:	1dfb      	adds	r3, r7, #7
 800262c:	781b      	ldrb	r3, [r3, #0]
 800262e:	b25b      	sxtb	r3, r3
 8002630:	089b      	lsrs	r3, r3, #2
 8002632:	430a      	orrs	r2, r1
 8002634:	33c0      	adds	r3, #192	; 0xc0
 8002636:	009b      	lsls	r3, r3, #2
 8002638:	501a      	str	r2, [r3, r0]
}
 800263a:	e031      	b.n	80026a0 <__NVIC_SetPriority+0xcc>
    SCB->SHP[_SHP_IDX(IRQn)] = ((uint32_t)(SCB->SHP[_SHP_IDX(IRQn)] & ~(0xFFUL << _BIT_SHIFT(IRQn))) |
 800263c:	4a1b      	ldr	r2, [pc, #108]	; (80026ac <__NVIC_SetPriority+0xd8>)
 800263e:	1dfb      	adds	r3, r7, #7
 8002640:	781b      	ldrb	r3, [r3, #0]
 8002642:	0019      	movs	r1, r3
 8002644:	230f      	movs	r3, #15
 8002646:	400b      	ands	r3, r1
 8002648:	3b08      	subs	r3, #8
 800264a:	089b      	lsrs	r3, r3, #2
 800264c:	3306      	adds	r3, #6
 800264e:	009b      	lsls	r3, r3, #2
 8002650:	18d3      	adds	r3, r2, r3
 8002652:	3304      	adds	r3, #4
 8002654:	681b      	ldr	r3, [r3, #0]
 8002656:	1dfa      	adds	r2, r7, #7
 8002658:	7812      	ldrb	r2, [r2, #0]
 800265a:	0011      	movs	r1, r2
 800265c:	2203      	movs	r2, #3
 800265e:	400a      	ands	r2, r1
 8002660:	00d2      	lsls	r2, r2, #3
 8002662:	21ff      	movs	r1, #255	; 0xff
 8002664:	4091      	lsls	r1, r2
 8002666:	000a      	movs	r2, r1
 8002668:	43d2      	mvns	r2, r2
 800266a:	401a      	ands	r2, r3
 800266c:	0011      	movs	r1, r2
       (((priority << (8U - __NVIC_PRIO_BITS)) & (uint32_t)0xFFUL) << _BIT_SHIFT(IRQn)));
 800266e:	683b      	ldr	r3, [r7, #0]
 8002670:	019b      	lsls	r3, r3, #6
 8002672:	22ff      	movs	r2, #255	; 0xff
 8002674:	401a      	ands	r2, r3
 8002676:	1dfb      	adds	r3, r7, #7
 8002678:	781b      	ldrb	r3, [r3, #0]
 800267a:	0018      	movs	r0, r3
 800267c:	2303      	movs	r3, #3
 800267e:	4003      	ands	r3, r0
 8002680:	00db      	lsls	r3, r3, #3
 8002682:	409a      	lsls	r2, r3
    SCB->SHP[_SHP_IDX(IRQn)] = ((uint32_t)(SCB->SHP[_SHP_IDX(IRQn)] & ~(0xFFUL << _BIT_SHIFT(IRQn))) |
 8002684:	4809      	ldr	r0, [pc, #36]	; (80026ac <__NVIC_SetPriority+0xd8>)
 8002686:	1dfb      	adds	r3, r7, #7
 8002688:	781b      	ldrb	r3, [r3, #0]
 800268a:	001c      	movs	r4, r3
 800268c:	230f      	movs	r3, #15
 800268e:	4023      	ands	r3, r4
 8002690:	3b08      	subs	r3, #8
 8002692:	089b      	lsrs	r3, r3, #2
 8002694:	430a      	orrs	r2, r1
 8002696:	3306      	adds	r3, #6
 8002698:	009b      	lsls	r3, r3, #2
 800269a:	18c3      	adds	r3, r0, r3
 800269c:	3304      	adds	r3, #4
 800269e:	601a      	str	r2, [r3, #0]
}
 80026a0:	46c0      	nop			; (mov r8, r8)
 80026a2:	46bd      	mov	sp, r7
 80026a4:	b003      	add	sp, #12
 80026a6:	bd90      	pop	{r4, r7, pc}
 80026a8:	e000e100 	.word	0xe000e100
 80026ac:	e000ed00 	.word	0xe000ed00

080026b0 <init_Uart1>:

struct USART_TX_only husart1;
struct USART husart2;
struct data send_data;

void init_Uart1(uint32_t baud) {
 80026b0:	b580      	push	{r7, lr}
 80026b2:	b082      	sub	sp, #8
 80026b4:	af00      	add	r7, sp, #0
 80026b6:	6078      	str	r0, [r7, #4]
	SET_BIT(RCC->APB2ENR, RCC_APB2ENR_USART1EN);  //  
 80026b8:	4b2f      	ldr	r3, [pc, #188]	; (8002778 <init_Uart1+0xc8>)
 80026ba:	699a      	ldr	r2, [r3, #24]
 80026bc:	4b2e      	ldr	r3, [pc, #184]	; (8002778 <init_Uart1+0xc8>)
 80026be:	2180      	movs	r1, #128	; 0x80
 80026c0:	01c9      	lsls	r1, r1, #7
 80026c2:	430a      	orrs	r2, r1
 80026c4:	619a      	str	r2, [r3, #24]

	SET_BIT(GPIOA->MODER, GPIO_MODER_MODER9_1); //   
 80026c6:	2390      	movs	r3, #144	; 0x90
 80026c8:	05db      	lsls	r3, r3, #23
 80026ca:	681a      	ldr	r2, [r3, #0]
 80026cc:	2390      	movs	r3, #144	; 0x90
 80026ce:	05db      	lsls	r3, r3, #23
 80026d0:	2180      	movs	r1, #128	; 0x80
 80026d2:	0309      	lsls	r1, r1, #12
 80026d4:	430a      	orrs	r2, r1
 80026d6:	601a      	str	r2, [r3, #0]
	SET_BIT(GPIOA->OSPEEDR, GPIO_OSPEEDER_OSPEEDR9); //  
 80026d8:	2390      	movs	r3, #144	; 0x90
 80026da:	05db      	lsls	r3, r3, #23
 80026dc:	689a      	ldr	r2, [r3, #8]
 80026de:	2390      	movs	r3, #144	; 0x90
 80026e0:	05db      	lsls	r3, r3, #23
 80026e2:	21c0      	movs	r1, #192	; 0xc0
 80026e4:	0309      	lsls	r1, r1, #12
 80026e6:	430a      	orrs	r2, r1
 80026e8:	609a      	str	r2, [r3, #8]
	SET_BIT(GPIOA->OTYPER, GPIO_OTYPER_OT_9); //  
 80026ea:	2390      	movs	r3, #144	; 0x90
 80026ec:	05db      	lsls	r3, r3, #23
 80026ee:	685a      	ldr	r2, [r3, #4]
 80026f0:	2390      	movs	r3, #144	; 0x90
 80026f2:	05db      	lsls	r3, r3, #23
 80026f4:	2180      	movs	r1, #128	; 0x80
 80026f6:	0089      	lsls	r1, r1, #2
 80026f8:	430a      	orrs	r2, r1
 80026fa:	605a      	str	r2, [r3, #4]
	SET_BIT(GPIOA->AFR[1], 1<<GPIO_AFRH_AFSEL9_Pos); //     
 80026fc:	2390      	movs	r3, #144	; 0x90
 80026fe:	05db      	lsls	r3, r3, #23
 8002700:	6a5a      	ldr	r2, [r3, #36]	; 0x24
 8002702:	2390      	movs	r3, #144	; 0x90
 8002704:	05db      	lsls	r3, r3, #23
 8002706:	2110      	movs	r1, #16
 8002708:	430a      	orrs	r2, r1
 800270a:	625a      	str	r2, [r3, #36]	; 0x24

	//SET_BIT(USART1->CR1, USART_CR1_M1);    7,8,9
	//SET_BIT(USART1->CR1, USART_CR1_M0);    7,8,9
	SET_BIT(USART1->CR1, USART_CR1_OVER8);//   8
 800270c:	4b1b      	ldr	r3, [pc, #108]	; (800277c <init_Uart1+0xcc>)
 800270e:	681a      	ldr	r2, [r3, #0]
 8002710:	4b1a      	ldr	r3, [pc, #104]	; (800277c <init_Uart1+0xcc>)
 8002712:	2180      	movs	r1, #128	; 0x80
 8002714:	0209      	lsls	r1, r1, #8
 8002716:	430a      	orrs	r2, r1
 8002718:	601a      	str	r2, [r3, #0]
	//SET_BIT(USART1->CR1, USART_CR1_PCE);  //   
	//SET_BIT(USART1->CR1, USART_CR1_PS);   // Even or Odd 
	//SET_BIT(USART1->CR1, USART_CR1_TXEIE);  // TXE          
	SET_BIT(USART1->CR1, USART_CR1_TE);       //  
 800271a:	4b18      	ldr	r3, [pc, #96]	; (800277c <init_Uart1+0xcc>)
 800271c:	681a      	ldr	r2, [r3, #0]
 800271e:	4b17      	ldr	r3, [pc, #92]	; (800277c <init_Uart1+0xcc>)
 8002720:	2108      	movs	r1, #8
 8002722:	430a      	orrs	r2, r1
 8002724:	601a      	str	r2, [r3, #0]
	SET_BIT(USART1->CR1, USART_CR1_RE);       //  
 8002726:	4b15      	ldr	r3, [pc, #84]	; (800277c <init_Uart1+0xcc>)
 8002728:	681a      	ldr	r2, [r3, #0]
 800272a:	4b14      	ldr	r3, [pc, #80]	; (800277c <init_Uart1+0xcc>)
 800272c:	2104      	movs	r1, #4
 800272e:	430a      	orrs	r2, r1
 8002730:	601a      	str	r2, [r3, #0]
	SET_BIT(USART1->CR3, USART_CR3_HDSEL);    //  
 8002732:	4b12      	ldr	r3, [pc, #72]	; (800277c <init_Uart1+0xcc>)
 8002734:	689a      	ldr	r2, [r3, #8]
 8002736:	4b11      	ldr	r3, [pc, #68]	; (800277c <init_Uart1+0xcc>)
 8002738:	2108      	movs	r1, #8
 800273a:	430a      	orrs	r2, r1
 800273c:	609a      	str	r2, [r3, #8]

	set_baud(USART1, baud);
 800273e:	687b      	ldr	r3, [r7, #4]
 8002740:	4a0e      	ldr	r2, [pc, #56]	; (800277c <init_Uart1+0xcc>)
 8002742:	0019      	movs	r1, r3
 8002744:	0010      	movs	r0, r2
 8002746:	f000 f8ab 	bl	80028a0 <set_baud>

	SET_BIT(USART1->CR1, USART_CR1_RXNEIE);   //   
 800274a:	4b0c      	ldr	r3, [pc, #48]	; (800277c <init_Uart1+0xcc>)
 800274c:	681a      	ldr	r2, [r3, #0]
 800274e:	4b0b      	ldr	r3, [pc, #44]	; (800277c <init_Uart1+0xcc>)
 8002750:	2120      	movs	r1, #32
 8002752:	430a      	orrs	r2, r1
 8002754:	601a      	str	r2, [r3, #0]
	//SET_BIT(USART1->CR1, USART_CR1_IDLEIE);   //  IDLEIE    
	SET_BIT(USART1->CR1, USART_CR1_UE); //  USART
 8002756:	4b09      	ldr	r3, [pc, #36]	; (800277c <init_Uart1+0xcc>)
 8002758:	681a      	ldr	r2, [r3, #0]
 800275a:	4b08      	ldr	r3, [pc, #32]	; (800277c <init_Uart1+0xcc>)
 800275c:	2101      	movs	r1, #1
 800275e:	430a      	orrs	r2, r1
 8002760:	601a      	str	r2, [r3, #0]
	NVIC_EnableIRQ(USART1_IRQn);        //   USART
 8002762:	201b      	movs	r0, #27
 8002764:	f7ff ff1c 	bl	80025a0 <__NVIC_EnableIRQ>
	NVIC_SetPriority(USART1_IRQn, 1);   //  
 8002768:	2101      	movs	r1, #1
 800276a:	201b      	movs	r0, #27
 800276c:	f7ff ff32 	bl	80025d4 <__NVIC_SetPriority>
}
 8002770:	46c0      	nop			; (mov r8, r8)
 8002772:	46bd      	mov	sp, r7
 8002774:	b002      	add	sp, #8
 8002776:	bd80      	pop	{r7, pc}
 8002778:	40021000 	.word	0x40021000
 800277c:	40013800 	.word	0x40013800

08002780 <init_Uart2>:

void init_Uart2(uint32_t baud) {
 8002780:	b580      	push	{r7, lr}
 8002782:	b082      	sub	sp, #8
 8002784:	af00      	add	r7, sp, #0
 8002786:	6078      	str	r0, [r7, #4]
	SET_BIT(RCC->APB1ENR, RCC_APB1ENR_USART2EN);   //   
 8002788:	4b43      	ldr	r3, [pc, #268]	; (8002898 <init_Uart2+0x118>)
 800278a:	69da      	ldr	r2, [r3, #28]
 800278c:	4b42      	ldr	r3, [pc, #264]	; (8002898 <init_Uart2+0x118>)
 800278e:	2180      	movs	r1, #128	; 0x80
 8002790:	0289      	lsls	r1, r1, #10
 8002792:	430a      	orrs	r2, r1
 8002794:	61da      	str	r2, [r3, #28]

	SET_BIT(GPIOA->MODER, GPIO_MODER_MODER2_1); //      2
 8002796:	2390      	movs	r3, #144	; 0x90
 8002798:	05db      	lsls	r3, r3, #23
 800279a:	681a      	ldr	r2, [r3, #0]
 800279c:	2390      	movs	r3, #144	; 0x90
 800279e:	05db      	lsls	r3, r3, #23
 80027a0:	2120      	movs	r1, #32
 80027a2:	430a      	orrs	r2, r1
 80027a4:	601a      	str	r2, [r3, #0]
	SET_BIT(GPIOA->OSPEEDR, GPIO_OSPEEDER_OSPEEDR2);    //  
 80027a6:	2390      	movs	r3, #144	; 0x90
 80027a8:	05db      	lsls	r3, r3, #23
 80027aa:	689a      	ldr	r2, [r3, #8]
 80027ac:	2390      	movs	r3, #144	; 0x90
 80027ae:	05db      	lsls	r3, r3, #23
 80027b0:	2130      	movs	r1, #48	; 0x30
 80027b2:	430a      	orrs	r2, r1
 80027b4:	609a      	str	r2, [r3, #8]
	SET_BIT(GPIOA->OTYPER, GPIO_OTYPER_OT_2);           //  
 80027b6:	2390      	movs	r3, #144	; 0x90
 80027b8:	05db      	lsls	r3, r3, #23
 80027ba:	685a      	ldr	r2, [r3, #4]
 80027bc:	2390      	movs	r3, #144	; 0x90
 80027be:	05db      	lsls	r3, r3, #23
 80027c0:	2104      	movs	r1, #4
 80027c2:	430a      	orrs	r2, r1
 80027c4:	605a      	str	r2, [r3, #4]
	SET_BIT(GPIOA->PUPDR, GPIO_PUPDR_PUPDR2_0);         //   +
 80027c6:	2390      	movs	r3, #144	; 0x90
 80027c8:	05db      	lsls	r3, r3, #23
 80027ca:	68da      	ldr	r2, [r3, #12]
 80027cc:	2390      	movs	r3, #144	; 0x90
 80027ce:	05db      	lsls	r3, r3, #23
 80027d0:	2110      	movs	r1, #16
 80027d2:	430a      	orrs	r2, r1
 80027d4:	60da      	str	r2, [r3, #12]
	SET_BIT(GPIOA->AFR[0], 1<<GPIO_AFRL_AFSEL2_Pos);    //     
 80027d6:	2390      	movs	r3, #144	; 0x90
 80027d8:	05db      	lsls	r3, r3, #23
 80027da:	6a1a      	ldr	r2, [r3, #32]
 80027dc:	2390      	movs	r3, #144	; 0x90
 80027de:	05db      	lsls	r3, r3, #23
 80027e0:	2180      	movs	r1, #128	; 0x80
 80027e2:	0049      	lsls	r1, r1, #1
 80027e4:	430a      	orrs	r2, r1
 80027e6:	621a      	str	r2, [r3, #32]

	SET_BIT(GPIOA->MODER, GPIO_MODER_MODER3_1); //   
 80027e8:	2390      	movs	r3, #144	; 0x90
 80027ea:	05db      	lsls	r3, r3, #23
 80027ec:	681a      	ldr	r2, [r3, #0]
 80027ee:	2390      	movs	r3, #144	; 0x90
 80027f0:	05db      	lsls	r3, r3, #23
 80027f2:	2180      	movs	r1, #128	; 0x80
 80027f4:	430a      	orrs	r2, r1
 80027f6:	601a      	str	r2, [r3, #0]
	SET_BIT(GPIOA->OSPEEDR, GPIO_OSPEEDER_OSPEEDR3);  //  
 80027f8:	2390      	movs	r3, #144	; 0x90
 80027fa:	05db      	lsls	r3, r3, #23
 80027fc:	689a      	ldr	r2, [r3, #8]
 80027fe:	2390      	movs	r3, #144	; 0x90
 8002800:	05db      	lsls	r3, r3, #23
 8002802:	21c0      	movs	r1, #192	; 0xc0
 8002804:	430a      	orrs	r2, r1
 8002806:	609a      	str	r2, [r3, #8]
	SET_BIT(GPIOA->PUPDR, GPIO_PUPDR_PUPDR3_0);       //   +
 8002808:	2390      	movs	r3, #144	; 0x90
 800280a:	05db      	lsls	r3, r3, #23
 800280c:	68da      	ldr	r2, [r3, #12]
 800280e:	2390      	movs	r3, #144	; 0x90
 8002810:	05db      	lsls	r3, r3, #23
 8002812:	2140      	movs	r1, #64	; 0x40
 8002814:	430a      	orrs	r2, r1
 8002816:	60da      	str	r2, [r3, #12]
	SET_BIT(GPIOA->AFR[0], 1<<GPIO_AFRL_AFSEL3_Pos); //     
 8002818:	2390      	movs	r3, #144	; 0x90
 800281a:	05db      	lsls	r3, r3, #23
 800281c:	6a1a      	ldr	r2, [r3, #32]
 800281e:	2390      	movs	r3, #144	; 0x90
 8002820:	05db      	lsls	r3, r3, #23
 8002822:	2180      	movs	r1, #128	; 0x80
 8002824:	0149      	lsls	r1, r1, #5
 8002826:	430a      	orrs	r2, r1
 8002828:	621a      	str	r2, [r3, #32]

	SET_BIT(USART2->CR1, USART_CR1_OVER8);    //   8
 800282a:	4b1c      	ldr	r3, [pc, #112]	; (800289c <init_Uart2+0x11c>)
 800282c:	681a      	ldr	r2, [r3, #0]
 800282e:	4b1b      	ldr	r3, [pc, #108]	; (800289c <init_Uart2+0x11c>)
 8002830:	2180      	movs	r1, #128	; 0x80
 8002832:	0209      	lsls	r1, r1, #8
 8002834:	430a      	orrs	r2, r1
 8002836:	601a      	str	r2, [r3, #0]
	SET_BIT(USART2->CR1, USART_CR1_TE);       //  
 8002838:	4b18      	ldr	r3, [pc, #96]	; (800289c <init_Uart2+0x11c>)
 800283a:	681a      	ldr	r2, [r3, #0]
 800283c:	4b17      	ldr	r3, [pc, #92]	; (800289c <init_Uart2+0x11c>)
 800283e:	2108      	movs	r1, #8
 8002840:	430a      	orrs	r2, r1
 8002842:	601a      	str	r2, [r3, #0]
	SET_BIT(USART2->CR1, USART_CR1_RE);       //  
 8002844:	4b15      	ldr	r3, [pc, #84]	; (800289c <init_Uart2+0x11c>)
 8002846:	681a      	ldr	r2, [r3, #0]
 8002848:	4b14      	ldr	r3, [pc, #80]	; (800289c <init_Uart2+0x11c>)
 800284a:	2104      	movs	r1, #4
 800284c:	430a      	orrs	r2, r1
 800284e:	601a      	str	r2, [r3, #0]
	SET_BIT(USART2->CR1, USART_CR1_RXNEIE);   //   
 8002850:	4b12      	ldr	r3, [pc, #72]	; (800289c <init_Uart2+0x11c>)
 8002852:	681a      	ldr	r2, [r3, #0]
 8002854:	4b11      	ldr	r3, [pc, #68]	; (800289c <init_Uart2+0x11c>)
 8002856:	2120      	movs	r1, #32
 8002858:	430a      	orrs	r2, r1
 800285a:	601a      	str	r2, [r3, #0]
	SET_BIT(USART2->CR1, USART_CR1_IDLEIE);   //  IDLEIE
 800285c:	4b0f      	ldr	r3, [pc, #60]	; (800289c <init_Uart2+0x11c>)
 800285e:	681a      	ldr	r2, [r3, #0]
 8002860:	4b0e      	ldr	r3, [pc, #56]	; (800289c <init_Uart2+0x11c>)
 8002862:	2110      	movs	r1, #16
 8002864:	430a      	orrs	r2, r1
 8002866:	601a      	str	r2, [r3, #0]

	set_baud(USART2, baud);
 8002868:	687b      	ldr	r3, [r7, #4]
 800286a:	4a0c      	ldr	r2, [pc, #48]	; (800289c <init_Uart2+0x11c>)
 800286c:	0019      	movs	r1, r3
 800286e:	0010      	movs	r0, r2
 8002870:	f000 f816 	bl	80028a0 <set_baud>

	SET_BIT(USART2->CR1, USART_CR1_UE);   //  USART
 8002874:	4b09      	ldr	r3, [pc, #36]	; (800289c <init_Uart2+0x11c>)
 8002876:	681a      	ldr	r2, [r3, #0]
 8002878:	4b08      	ldr	r3, [pc, #32]	; (800289c <init_Uart2+0x11c>)
 800287a:	2101      	movs	r1, #1
 800287c:	430a      	orrs	r2, r1
 800287e:	601a      	str	r2, [r3, #0]
	NVIC_EnableIRQ(USART2_IRQn);          //   USART
 8002880:	201c      	movs	r0, #28
 8002882:	f7ff fe8d 	bl	80025a0 <__NVIC_EnableIRQ>
	NVIC_SetPriority(USART2_IRQn, 1);     //  
 8002886:	2101      	movs	r1, #1
 8002888:	201c      	movs	r0, #28
 800288a:	f7ff fea3 	bl	80025d4 <__NVIC_SetPriority>
}
 800288e:	46c0      	nop			; (mov r8, r8)
 8002890:	46bd      	mov	sp, r7
 8002892:	b002      	add	sp, #8
 8002894:	bd80      	pop	{r7, pc}
 8002896:	46c0      	nop			; (mov r8, r8)
 8002898:	40021000 	.word	0x40021000
 800289c:	40004400 	.word	0x40004400

080028a0 <set_baud>:

void set_baud(USART_TypeDef *usart, uint32_t baud) {   //             
 80028a0:	b580      	push	{r7, lr}
 80028a2:	b084      	sub	sp, #16
 80028a4:	af00      	add	r7, sp, #0
 80028a6:	6078      	str	r0, [r7, #4]
 80028a8:	6039      	str	r1, [r7, #0]
	uint16_t push;
	usart->BRR = (2 * SYS_CLOCK / baud);       //  
 80028aa:	6839      	ldr	r1, [r7, #0]
 80028ac:	4813      	ldr	r0, [pc, #76]	; (80028fc <set_baud+0x5c>)
 80028ae:	f7fd fc2b 	bl	8000108 <__udivsi3>
 80028b2:	0003      	movs	r3, r0
 80028b4:	001a      	movs	r2, r3
 80028b6:	687b      	ldr	r3, [r7, #4]
 80028b8:	60da      	str	r2, [r3, #12]
	push = usart->BRR;
 80028ba:	687b      	ldr	r3, [r7, #4]
 80028bc:	68da      	ldr	r2, [r3, #12]
 80028be:	210e      	movs	r1, #14
 80028c0:	187b      	adds	r3, r7, r1
 80028c2:	801a      	strh	r2, [r3, #0]
	push = push << 12;
 80028c4:	187b      	adds	r3, r7, r1
 80028c6:	187a      	adds	r2, r7, r1
 80028c8:	8812      	ldrh	r2, [r2, #0]
 80028ca:	0312      	lsls	r2, r2, #12
 80028cc:	801a      	strh	r2, [r3, #0]
	push = push >> 13;
 80028ce:	187b      	adds	r3, r7, r1
 80028d0:	187a      	adds	r2, r7, r1
 80028d2:	8812      	ldrh	r2, [r2, #0]
 80028d4:	0b52      	lsrs	r2, r2, #13
 80028d6:	801a      	strh	r2, [r3, #0]
	usart->BRR &= ~0xF;
 80028d8:	687b      	ldr	r3, [r7, #4]
 80028da:	68db      	ldr	r3, [r3, #12]
 80028dc:	220f      	movs	r2, #15
 80028de:	4393      	bics	r3, r2
 80028e0:	001a      	movs	r2, r3
 80028e2:	687b      	ldr	r3, [r7, #4]
 80028e4:	60da      	str	r2, [r3, #12]
	usart->BRR |= push;
 80028e6:	687b      	ldr	r3, [r7, #4]
 80028e8:	68da      	ldr	r2, [r3, #12]
 80028ea:	187b      	adds	r3, r7, r1
 80028ec:	881b      	ldrh	r3, [r3, #0]
 80028ee:	431a      	orrs	r2, r3
 80028f0:	687b      	ldr	r3, [r7, #4]
 80028f2:	60da      	str	r2, [r3, #12]
}
 80028f4:	46c0      	nop			; (mov r8, r8)
 80028f6:	46bd      	mov	sp, r7
 80028f8:	b004      	add	sp, #16
 80028fa:	bd80      	pop	{r7, pc}
 80028fc:	05b8d800 	.word	0x05b8d800

08002900 <UART1_transmit>:

void UART1_transmit(uint8_t lenght, uint8_t *data) {
 8002900:	b580      	push	{r7, lr}
 8002902:	b082      	sub	sp, #8
 8002904:	af00      	add	r7, sp, #0
 8002906:	0002      	movs	r2, r0
 8002908:	6039      	str	r1, [r7, #0]
 800290a:	1dfb      	adds	r3, r7, #7
 800290c:	701a      	strb	r2, [r3, #0]
	while (husart1.tx_counter)
 800290e:	46c0      	nop			; (mov r8, r8)
 8002910:	4b0c      	ldr	r3, [pc, #48]	; (8002944 <UART1_transmit+0x44>)
 8002912:	7e5b      	ldrb	r3, [r3, #25]
 8002914:	2b00      	cmp	r3, #0
 8002916:	d1fb      	bne.n	8002910 <UART1_transmit+0x10>
		;   //,    
	USART1->TDR = *data;          // 
 8002918:	683b      	ldr	r3, [r7, #0]
 800291a:	781a      	ldrb	r2, [r3, #0]
 800291c:	4b0a      	ldr	r3, [pc, #40]	; (8002948 <UART1_transmit+0x48>)
 800291e:	b292      	uxth	r2, r2
 8002920:	851a      	strh	r2, [r3, #40]	; 0x28
	husart1.tx_size = lenght;
 8002922:	4b08      	ldr	r3, [pc, #32]	; (8002944 <UART1_transmit+0x44>)
 8002924:	1dfa      	adds	r2, r7, #7
 8002926:	7812      	ldrb	r2, [r2, #0]
 8002928:	76da      	strb	r2, [r3, #27]
	husart1.tx_counter = 1;         //  
 800292a:	4b06      	ldr	r3, [pc, #24]	; (8002944 <UART1_transmit+0x44>)
 800292c:	2201      	movs	r2, #1
 800292e:	765a      	strb	r2, [r3, #25]
	USART1->CR1 |= USART_CR1_TXEIE; //  
 8002930:	4b05      	ldr	r3, [pc, #20]	; (8002948 <UART1_transmit+0x48>)
 8002932:	681a      	ldr	r2, [r3, #0]
 8002934:	4b04      	ldr	r3, [pc, #16]	; (8002948 <UART1_transmit+0x48>)
 8002936:	2180      	movs	r1, #128	; 0x80
 8002938:	430a      	orrs	r2, r1
 800293a:	601a      	str	r2, [r3, #0]
}
 800293c:	46c0      	nop			; (mov r8, r8)
 800293e:	46bd      	mov	sp, r7
 8002940:	b002      	add	sp, #8
 8002942:	bd80      	pop	{r7, pc}
 8002944:	20000070 	.word	0x20000070
 8002948:	40013800 	.word	0x40013800

0800294c <UART2_transmit>:

void UART2_transmit(uint8_t lenght, uint8_t *data) {
 800294c:	b580      	push	{r7, lr}
 800294e:	b082      	sub	sp, #8
 8002950:	af00      	add	r7, sp, #0
 8002952:	0002      	movs	r2, r0
 8002954:	6039      	str	r1, [r7, #0]
 8002956:	1dfb      	adds	r3, r7, #7
 8002958:	701a      	strb	r2, [r3, #0]
	while (husart2.tx_counter)
 800295a:	46c0      	nop			; (mov r8, r8)
 800295c:	4b0e      	ldr	r3, [pc, #56]	; (8002998 <UART2_transmit+0x4c>)
 800295e:	2240      	movs	r2, #64	; 0x40
 8002960:	5c9b      	ldrb	r3, [r3, r2]
 8002962:	2b00      	cmp	r3, #0
 8002964:	d1fa      	bne.n	800295c <UART2_transmit+0x10>
		;   //,    
	USART2->TDR = *data;          // 
 8002966:	683b      	ldr	r3, [r7, #0]
 8002968:	781a      	ldrb	r2, [r3, #0]
 800296a:	4b0c      	ldr	r3, [pc, #48]	; (800299c <UART2_transmit+0x50>)
 800296c:	b292      	uxth	r2, r2
 800296e:	851a      	strh	r2, [r3, #40]	; 0x28
	husart2.tx_size = lenght;
 8002970:	4b09      	ldr	r3, [pc, #36]	; (8002998 <UART2_transmit+0x4c>)
 8002972:	1dfa      	adds	r2, r7, #7
 8002974:	2142      	movs	r1, #66	; 0x42
 8002976:	7812      	ldrb	r2, [r2, #0]
 8002978:	545a      	strb	r2, [r3, r1]
	husart2.tx_counter = 1;
 800297a:	4b07      	ldr	r3, [pc, #28]	; (8002998 <UART2_transmit+0x4c>)
 800297c:	2240      	movs	r2, #64	; 0x40
 800297e:	2101      	movs	r1, #1
 8002980:	5499      	strb	r1, [r3, r2]
	USART2->CR1 |= USART_CR1_TXEIE; //  
 8002982:	4b06      	ldr	r3, [pc, #24]	; (800299c <UART2_transmit+0x50>)
 8002984:	681a      	ldr	r2, [r3, #0]
 8002986:	4b05      	ldr	r3, [pc, #20]	; (800299c <UART2_transmit+0x50>)
 8002988:	2180      	movs	r1, #128	; 0x80
 800298a:	430a      	orrs	r2, r1
 800298c:	601a      	str	r2, [r3, #0]
}
 800298e:	46c0      	nop			; (mov r8, r8)
 8002990:	46bd      	mov	sp, r7
 8002992:	b002      	add	sp, #8
 8002994:	bd80      	pop	{r7, pc}
 8002996:	46c0      	nop			; (mov r8, r8)
 8002998:	20000090 	.word	0x20000090
 800299c:	40004400 	.word	0x40004400

080029a0 <write_to_TMC2300>:

void write_to_TMC2300(uint8_t adr, uint8_t reg, uint32_t data) {
 80029a0:	b580      	push	{r7, lr}
 80029a2:	b082      	sub	sp, #8
 80029a4:	af00      	add	r7, sp, #0
 80029a6:	603a      	str	r2, [r7, #0]
 80029a8:	1dfb      	adds	r3, r7, #7
 80029aa:	1c02      	adds	r2, r0, #0
 80029ac:	701a      	strb	r2, [r3, #0]
 80029ae:	1dbb      	adds	r3, r7, #6
 80029b0:	1c0a      	adds	r2, r1, #0
 80029b2:	701a      	strb	r2, [r3, #0]
	husart1.tx_buffer[0] = 0x55; //  
 80029b4:	4b19      	ldr	r3, [pc, #100]	; (8002a1c <write_to_TMC2300+0x7c>)
 80029b6:	2255      	movs	r2, #85	; 0x55
 80029b8:	701a      	strb	r2, [r3, #0]
	husart1.tx_buffer[1] = adr; //  
 80029ba:	4b18      	ldr	r3, [pc, #96]	; (8002a1c <write_to_TMC2300+0x7c>)
 80029bc:	1dfa      	adds	r2, r7, #7
 80029be:	7812      	ldrb	r2, [r2, #0]
 80029c0:	705a      	strb	r2, [r3, #1]
	husart1.tx_buffer[2] = 0x80; //   
 80029c2:	4b16      	ldr	r3, [pc, #88]	; (8002a1c <write_to_TMC2300+0x7c>)
 80029c4:	2280      	movs	r2, #128	; 0x80
 80029c6:	709a      	strb	r2, [r3, #2]
	husart1.tx_buffer[2] |= reg; //     +  
 80029c8:	4b14      	ldr	r3, [pc, #80]	; (8002a1c <write_to_TMC2300+0x7c>)
 80029ca:	789a      	ldrb	r2, [r3, #2]
 80029cc:	1dbb      	adds	r3, r7, #6
 80029ce:	781b      	ldrb	r3, [r3, #0]
 80029d0:	4313      	orrs	r3, r2
 80029d2:	b2da      	uxtb	r2, r3
 80029d4:	4b11      	ldr	r3, [pc, #68]	; (8002a1c <write_to_TMC2300+0x7c>)
 80029d6:	709a      	strb	r2, [r3, #2]
	husart1.tx_buffer[3] = data >> 24;
 80029d8:	683b      	ldr	r3, [r7, #0]
 80029da:	0e1b      	lsrs	r3, r3, #24
 80029dc:	b2da      	uxtb	r2, r3
 80029de:	4b0f      	ldr	r3, [pc, #60]	; (8002a1c <write_to_TMC2300+0x7c>)
 80029e0:	70da      	strb	r2, [r3, #3]
	husart1.tx_buffer[4] = data >> 16;
 80029e2:	683b      	ldr	r3, [r7, #0]
 80029e4:	0c1b      	lsrs	r3, r3, #16
 80029e6:	b2da      	uxtb	r2, r3
 80029e8:	4b0c      	ldr	r3, [pc, #48]	; (8002a1c <write_to_TMC2300+0x7c>)
 80029ea:	711a      	strb	r2, [r3, #4]
	husart1.tx_buffer[5] = data >> 8;
 80029ec:	683b      	ldr	r3, [r7, #0]
 80029ee:	0a1b      	lsrs	r3, r3, #8
 80029f0:	b2da      	uxtb	r2, r3
 80029f2:	4b0a      	ldr	r3, [pc, #40]	; (8002a1c <write_to_TMC2300+0x7c>)
 80029f4:	715a      	strb	r2, [r3, #5]
	husart1.tx_buffer[6] = data;
 80029f6:	683b      	ldr	r3, [r7, #0]
 80029f8:	b2da      	uxtb	r2, r3
 80029fa:	4b08      	ldr	r3, [pc, #32]	; (8002a1c <write_to_TMC2300+0x7c>)
 80029fc:	719a      	strb	r2, [r3, #6]
	swuart_calcCRC(husart1.tx_buffer, 8);
 80029fe:	4b07      	ldr	r3, [pc, #28]	; (8002a1c <write_to_TMC2300+0x7c>)
 8002a00:	2108      	movs	r1, #8
 8002a02:	0018      	movs	r0, r3
 8002a04:	f000 fa98 	bl	8002f38 <swuart_calcCRC>
	UART1_transmit(8, husart1.tx_buffer);
 8002a08:	4b04      	ldr	r3, [pc, #16]	; (8002a1c <write_to_TMC2300+0x7c>)
 8002a0a:	0019      	movs	r1, r3
 8002a0c:	2008      	movs	r0, #8
 8002a0e:	f7ff ff77 	bl	8002900 <UART1_transmit>
}
 8002a12:	46c0      	nop			; (mov r8, r8)
 8002a14:	46bd      	mov	sp, r7
 8002a16:	b002      	add	sp, #8
 8002a18:	bd80      	pop	{r7, pc}
 8002a1a:	46c0      	nop			; (mov r8, r8)
 8002a1c:	20000070 	.word	0x20000070

08002a20 <read_TMC2300>:

void read_TMC2300(uint8_t adr, uint8_t reg) {  //0x6A 
 8002a20:	b580      	push	{r7, lr}
 8002a22:	b082      	sub	sp, #8
 8002a24:	af00      	add	r7, sp, #0
 8002a26:	0002      	movs	r2, r0
 8002a28:	1dfb      	adds	r3, r7, #7
 8002a2a:	701a      	strb	r2, [r3, #0]
 8002a2c:	1dbb      	adds	r3, r7, #6
 8002a2e:	1c0a      	adds	r2, r1, #0
 8002a30:	701a      	strb	r2, [r3, #0]
 husart1.tx_buffer[0] = 0x55; //  
 8002a32:	4b0c      	ldr	r3, [pc, #48]	; (8002a64 <read_TMC2300+0x44>)
 8002a34:	2255      	movs	r2, #85	; 0x55
 8002a36:	701a      	strb	r2, [r3, #0]
 husart1.tx_buffer[1] = adr; //  
 8002a38:	4b0a      	ldr	r3, [pc, #40]	; (8002a64 <read_TMC2300+0x44>)
 8002a3a:	1dfa      	adds	r2, r7, #7
 8002a3c:	7812      	ldrb	r2, [r2, #0]
 8002a3e:	705a      	strb	r2, [r3, #1]
 husart1.tx_buffer[2] = reg; //     +  
 8002a40:	4b08      	ldr	r3, [pc, #32]	; (8002a64 <read_TMC2300+0x44>)
 8002a42:	1dba      	adds	r2, r7, #6
 8002a44:	7812      	ldrb	r2, [r2, #0]
 8002a46:	709a      	strb	r2, [r3, #2]
 swuart_calcCRC (husart1.tx_buffer, 4);
 8002a48:	4b06      	ldr	r3, [pc, #24]	; (8002a64 <read_TMC2300+0x44>)
 8002a4a:	2104      	movs	r1, #4
 8002a4c:	0018      	movs	r0, r3
 8002a4e:	f000 fa73 	bl	8002f38 <swuart_calcCRC>
 UART1_transmit(4, husart1.tx_buffer);
 8002a52:	4b04      	ldr	r3, [pc, #16]	; (8002a64 <read_TMC2300+0x44>)
 8002a54:	0019      	movs	r1, r3
 8002a56:	2004      	movs	r0, #4
 8002a58:	f7ff ff52 	bl	8002900 <UART1_transmit>
 }
 8002a5c:	46c0      	nop			; (mov r8, r8)
 8002a5e:	46bd      	mov	sp, r7
 8002a60:	b002      	add	sp, #8
 8002a62:	bd80      	pop	{r7, pc}
 8002a64:	20000070 	.word	0x20000070

08002a68 <setting_TMC230>:

void setting_TMC230(void) {
 8002a68:	b580      	push	{r7, lr}
 8002a6a:	af00      	add	r7, sp, #0
	write_to_TMC2300(0, 0x6C, 0x8008001);        // ,   STEP3 // 8
 8002a6c:	4b13      	ldr	r3, [pc, #76]	; (8002abc <setting_TMC230+0x54>)
 8002a6e:	001a      	movs	r2, r3
 8002a70:	216c      	movs	r1, #108	; 0x6c
 8002a72:	2000      	movs	r0, #0
 8002a74:	f7ff ff94 	bl	80029a0 <write_to_TMC2300>
	Delay_ms(2);
 8002a78:	2002      	movs	r0, #2
 8002a7a:	f7fe ff73 	bl	8001964 <Delay_ms>
	write_to_TMC2300(0, 0x10, 0x10208);          //   STEP3
 8002a7e:	4b10      	ldr	r3, [pc, #64]	; (8002ac0 <setting_TMC230+0x58>)
 8002a80:	001a      	movs	r2, r3
 8002a82:	2110      	movs	r1, #16
 8002a84:	2000      	movs	r0, #0
 8002a86:	f7ff ff8b 	bl	80029a0 <write_to_TMC2300>
	Delay_ms(2);
 8002a8a:	2002      	movs	r0, #2
 8002a8c:	f7fe ff6a 	bl	8001964 <Delay_ms>
	write_to_TMC2300(1, 0x6C, 0x8008001);        // ,   STEP1
 8002a90:	4b0a      	ldr	r3, [pc, #40]	; (8002abc <setting_TMC230+0x54>)
 8002a92:	001a      	movs	r2, r3
 8002a94:	216c      	movs	r1, #108	; 0x6c
 8002a96:	2001      	movs	r0, #1
 8002a98:	f7ff ff82 	bl	80029a0 <write_to_TMC2300>
	Delay_ms(2);
 8002a9c:	2002      	movs	r0, #2
 8002a9e:	f7fe ff61 	bl	8001964 <Delay_ms>
	write_to_TMC2300(3, 0x6C, 0x8008001);        // ,   STEP2
 8002aa2:	4b06      	ldr	r3, [pc, #24]	; (8002abc <setting_TMC230+0x54>)
 8002aa4:	001a      	movs	r2, r3
 8002aa6:	216c      	movs	r1, #108	; 0x6c
 8002aa8:	2003      	movs	r0, #3
 8002aaa:	f7ff ff79 	bl	80029a0 <write_to_TMC2300>
	Delay_ms(2);
 8002aae:	2002      	movs	r0, #2
 8002ab0:	f7fe ff58 	bl	8001964 <Delay_ms>
}
 8002ab4:	46c0      	nop			; (mov r8, r8)
 8002ab6:	46bd      	mov	sp, r7
 8002ab8:	bd80      	pop	{r7, pc}
 8002aba:	46c0      	nop			; (mov r8, r8)
 8002abc:	08008001 	.word	0x08008001
 8002ac0:	00010208 	.word	0x00010208

08002ac4 <parsing_data>:

void parsing_data(void) {  //  
 8002ac4:	b590      	push	{r4, r7, lr}
 8002ac6:	b083      	sub	sp, #12
 8002ac8:	af00      	add	r7, sp, #0
	uint32_t bdt = 0;      //     
 8002aca:	2300      	movs	r3, #0
 8002acc:	607b      	str	r3, [r7, #4]
	if (husart2.rx_ok) {   //   ,  
 8002ace:	4b85      	ldr	r3, [pc, #532]	; (8002ce4 <parsing_data+0x220>)
 8002ad0:	2243      	movs	r2, #67	; 0x43
 8002ad2:	5c9b      	ldrb	r3, [r3, r2]
 8002ad4:	2b00      	cmp	r3, #0
 8002ad6:	d100      	bne.n	8002ada <parsing_data+0x16>
 8002ad8:	e100      	b.n	8002cdc <parsing_data+0x218>
		husart2.rx_ok = 0;
 8002ada:	4b82      	ldr	r3, [pc, #520]	; (8002ce4 <parsing_data+0x220>)
 8002adc:	2243      	movs	r2, #67	; 0x43
 8002ade:	2100      	movs	r1, #0
 8002ae0:	5499      	strb	r1, [r3, r2]
		if (husart2.rx_buffer[0] == 0x02) { //        4    2
 8002ae2:	4b80      	ldr	r3, [pc, #512]	; (8002ce4 <parsing_data+0x220>)
 8002ae4:	2220      	movs	r2, #32
 8002ae6:	5c9b      	ldrb	r3, [r3, r2]
 8002ae8:	2b02      	cmp	r3, #2
 8002aea:	d000      	beq.n	8002aee <parsing_data+0x2a>
 8002aec:	e0f6      	b.n	8002cdc <parsing_data+0x218>
			if (calcCRC(((husart2.rx_buffer[1] << 2) + 3), husart2.rx_buffer)
 8002aee:	4b7d      	ldr	r3, [pc, #500]	; (8002ce4 <parsing_data+0x220>)
 8002af0:	2221      	movs	r2, #33	; 0x21
 8002af2:	5c9b      	ldrb	r3, [r3, r2]
 8002af4:	009b      	lsls	r3, r3, #2
 8002af6:	b2db      	uxtb	r3, r3
 8002af8:	3303      	adds	r3, #3
 8002afa:	b2db      	uxtb	r3, r3
 8002afc:	4a7a      	ldr	r2, [pc, #488]	; (8002ce8 <parsing_data+0x224>)
 8002afe:	0011      	movs	r1, r2
 8002b00:	0018      	movs	r0, r3
 8002b02:	f000 fa6d 	bl	8002fe0 <calcCRC>
 8002b06:	0003      	movs	r3, r0
 8002b08:	0018      	movs	r0, r3
					== husart2.rx_buffer[((husart2.rx_buffer[1] << 2) + 3)]) { //  
 8002b0a:	4b76      	ldr	r3, [pc, #472]	; (8002ce4 <parsing_data+0x220>)
 8002b0c:	2221      	movs	r2, #33	; 0x21
 8002b0e:	5c9b      	ldrb	r3, [r3, r2]
 8002b10:	009b      	lsls	r3, r3, #2
 8002b12:	3303      	adds	r3, #3
 8002b14:	4a73      	ldr	r2, [pc, #460]	; (8002ce4 <parsing_data+0x220>)
 8002b16:	2120      	movs	r1, #32
 8002b18:	18d3      	adds	r3, r2, r3
 8002b1a:	185b      	adds	r3, r3, r1
 8002b1c:	781b      	ldrb	r3, [r3, #0]
			if (calcCRC(((husart2.rx_buffer[1] << 2) + 3), husart2.rx_buffer)
 8002b1e:	4298      	cmp	r0, r3
 8002b20:	d000      	beq.n	8002b24 <parsing_data+0x60>
 8002b22:	e0cf      	b.n	8002cc4 <parsing_data+0x200>
				switch (husart2.rx_buffer[2]) { //       
 8002b24:	4b6f      	ldr	r3, [pc, #444]	; (8002ce4 <parsing_data+0x220>)
 8002b26:	2222      	movs	r2, #34	; 0x22
 8002b28:	5c9b      	ldrb	r3, [r3, r2]
 8002b2a:	2b0c      	cmp	r3, #12
 8002b2c:	d900      	bls.n	8002b30 <parsing_data+0x6c>
 8002b2e:	e0d5      	b.n	8002cdc <parsing_data+0x218>
 8002b30:	009a      	lsls	r2, r3, #2
 8002b32:	4b6e      	ldr	r3, [pc, #440]	; (8002cec <parsing_data+0x228>)
 8002b34:	18d3      	adds	r3, r2, r3
 8002b36:	681b      	ldr	r3, [r3, #0]
 8002b38:	469f      	mov	pc, r3
				case 1:
					send_data.one = 0x01; //        
 8002b3a:	4b6d      	ldr	r3, [pc, #436]	; (8002cf0 <parsing_data+0x22c>)
 8002b3c:	2201      	movs	r2, #1
 8002b3e:	601a      	str	r2, [r3, #0]
					form_send_byte(PING, 1); //     ( ,  )
 8002b40:	2101      	movs	r1, #1
 8002b42:	2001      	movs	r0, #1
 8002b44:	f000 f922 	bl	8002d8c <form_send_byte>
					break;
 8002b48:	e0c8      	b.n	8002cdc <parsing_data+0x218>
				case 2:
					new_data_flag(make_32bit(husart2.rx_buffer + 3)); //       3 
 8002b4a:	4b6a      	ldr	r3, [pc, #424]	; (8002cf4 <parsing_data+0x230>)
 8002b4c:	0018      	movs	r0, r3
 8002b4e:	f000 f99b 	bl	8002e88 <make_32bit>
 8002b52:	0003      	movs	r3, r0
 8002b54:	0018      	movs	r0, r3
 8002b56:	f7ff f8a3 	bl	8001ca0 <new_data_flag>
					send_data.one = read_flag();
 8002b5a:	f000 f8cf 	bl	8002cfc <read_flag>
 8002b5e:	0002      	movs	r2, r0
 8002b60:	4b63      	ldr	r3, [pc, #396]	; (8002cf0 <parsing_data+0x22c>)
 8002b62:	601a      	str	r2, [r3, #0]
					form_send_byte(SET_PARAM, 1);
 8002b64:	2101      	movs	r1, #1
 8002b66:	2002      	movs	r0, #2
 8002b68:	f000 f910 	bl	8002d8c <form_send_byte>
					break;
 8002b6c:	e0b6      	b.n	8002cdc <parsing_data+0x218>
				case 3:
					send_data.one = poz_motor(1); //    
 8002b6e:	2001      	movs	r0, #1
 8002b70:	f7ff f8fc 	bl	8001d6c <poz_motor>
 8002b74:	0002      	movs	r2, r0
 8002b76:	4b5e      	ldr	r3, [pc, #376]	; (8002cf0 <parsing_data+0x22c>)
 8002b78:	601a      	str	r2, [r3, #0]
					send_data.two = poz_motor(2);
 8002b7a:	2002      	movs	r0, #2
 8002b7c:	f7ff f8f6 	bl	8001d6c <poz_motor>
 8002b80:	0002      	movs	r2, r0
 8002b82:	4b5b      	ldr	r3, [pc, #364]	; (8002cf0 <parsing_data+0x22c>)
 8002b84:	605a      	str	r2, [r3, #4]
					send_data.three = read_flag(); //   (  )
 8002b86:	f000 f8b9 	bl	8002cfc <read_flag>
 8002b8a:	0002      	movs	r2, r0
 8002b8c:	4b58      	ldr	r3, [pc, #352]	; (8002cf0 <parsing_data+0x22c>)
 8002b8e:	609a      	str	r2, [r3, #8]
					form_send_byte(MOTOR_POS, 3);
 8002b90:	2103      	movs	r1, #3
 8002b92:	2003      	movs	r0, #3
 8002b94:	f000 f8fa 	bl	8002d8c <form_send_byte>
					break;
 8002b98:	e0a0      	b.n	8002cdc <parsing_data+0x218>
				case 4:
					send_data.one = new_baud(make_32bit(husart2.rx_buffer + 3)); //   , 
 8002b9a:	4b56      	ldr	r3, [pc, #344]	; (8002cf4 <parsing_data+0x230>)
 8002b9c:	0018      	movs	r0, r3
 8002b9e:	f000 f973 	bl	8002e88 <make_32bit>
 8002ba2:	0003      	movs	r3, r0
 8002ba4:	0018      	movs	r0, r3
 8002ba6:	f7fe fc2e 	bl	8001406 <new_baud>
 8002baa:	0002      	movs	r2, r0
 8002bac:	4b50      	ldr	r3, [pc, #320]	; (8002cf0 <parsing_data+0x22c>)
 8002bae:	601a      	str	r2, [r3, #0]
					bdt = send_data.one;
 8002bb0:	4b4f      	ldr	r3, [pc, #316]	; (8002cf0 <parsing_data+0x22c>)
 8002bb2:	681b      	ldr	r3, [r3, #0]
 8002bb4:	607b      	str	r3, [r7, #4]
					form_send_byte(SET_BAUD, 1);  //  
 8002bb6:	2101      	movs	r1, #1
 8002bb8:	2004      	movs	r0, #4
 8002bba:	f000 f8e7 	bl	8002d8c <form_send_byte>
					Delay_ms(5);
 8002bbe:	2005      	movs	r0, #5
 8002bc0:	f7fe fed0 	bl	8001964 <Delay_ms>
					if (bdt) new_baud_set (bdt);  //      
 8002bc4:	687b      	ldr	r3, [r7, #4]
 8002bc6:	2b00      	cmp	r3, #0
 8002bc8:	d100      	bne.n	8002bcc <parsing_data+0x108>
 8002bca:	e086      	b.n	8002cda <parsing_data+0x216>
 8002bcc:	687b      	ldr	r3, [r7, #4]
 8002bce:	0018      	movs	r0, r3
 8002bd0:	f7fe fc3e 	bl	8001450 <new_baud_set>
					break;
 8002bd4:	e081      	b.n	8002cda <parsing_data+0x216>
				case 5:
					send_data.one = extrn_step(make_32bit(husart2.rx_buffer + 3),
 8002bd6:	4b47      	ldr	r3, [pc, #284]	; (8002cf4 <parsing_data+0x230>)
 8002bd8:	0018      	movs	r0, r3
 8002bda:	f000 f955 	bl	8002e88 <make_32bit>
 8002bde:	0004      	movs	r4, r0
 8002be0:	4b45      	ldr	r3, [pc, #276]	; (8002cf8 <parsing_data+0x234>)
 8002be2:	0018      	movs	r0, r3
 8002be4:	f000 f950 	bl	8002e88 <make_32bit>
 8002be8:	0003      	movs	r3, r0
 8002bea:	0019      	movs	r1, r3
 8002bec:	0020      	movs	r0, r4
 8002bee:	f7ff fbb3 	bl	8002358 <extrn_step>
 8002bf2:	0002      	movs	r2, r0
 8002bf4:	4b3e      	ldr	r3, [pc, #248]	; (8002cf0 <parsing_data+0x22c>)
 8002bf6:	601a      	str	r2, [r3, #0]
							make_32bit(husart2.rx_buffer + 7)); //   
					form_send_byte(NEW_POS, 1);
 8002bf8:	2101      	movs	r1, #1
 8002bfa:	2005      	movs	r0, #5
 8002bfc:	f000 f8c6 	bl	8002d8c <form_send_byte>
					break;
 8002c00:	e06c      	b.n	8002cdc <parsing_data+0x218>
				case 6:
					send_data.one = setting_pin_rasbery (make_32bit(husart2.rx_buffer + 3));
 8002c02:	4b3c      	ldr	r3, [pc, #240]	; (8002cf4 <parsing_data+0x230>)
 8002c04:	0018      	movs	r0, r3
 8002c06:	f000 f93f 	bl	8002e88 <make_32bit>
 8002c0a:	0003      	movs	r3, r0
 8002c0c:	0018      	movs	r0, r3
 8002c0e:	f000 fda9 	bl	8003764 <setting_pin_rasbery>
 8002c12:	0002      	movs	r2, r0
 8002c14:	4b36      	ldr	r3, [pc, #216]	; (8002cf0 <parsing_data+0x22c>)
 8002c16:	601a      	str	r2, [r3, #0]
					form_send_byte(SIGN, 1);
 8002c18:	2101      	movs	r1, #1
 8002c1a:	2006      	movs	r0, #6
 8002c1c:	f000 f8b6 	bl	8002d8c <form_send_byte>
					break;
 8002c20:	e05c      	b.n	8002cdc <parsing_data+0x218>
				case 7:
					send_data.one = new_speed(make_32bit(husart2.rx_buffer + 3),make_32bit(husart2.rx_buffer + 7));
 8002c22:	4b34      	ldr	r3, [pc, #208]	; (8002cf4 <parsing_data+0x230>)
 8002c24:	0018      	movs	r0, r3
 8002c26:	f000 f92f 	bl	8002e88 <make_32bit>
 8002c2a:	0004      	movs	r4, r0
 8002c2c:	4b32      	ldr	r3, [pc, #200]	; (8002cf8 <parsing_data+0x234>)
 8002c2e:	0018      	movs	r0, r3
 8002c30:	f000 f92a 	bl	8002e88 <make_32bit>
 8002c34:	0003      	movs	r3, r0
 8002c36:	0019      	movs	r1, r3
 8002c38:	0020      	movs	r0, r4
 8002c3a:	f7fe fc27 	bl	800148c <new_speed>
 8002c3e:	0002      	movs	r2, r0
 8002c40:	4b2b      	ldr	r3, [pc, #172]	; (8002cf0 <parsing_data+0x22c>)
 8002c42:	601a      	str	r2, [r3, #0]
					form_send_byte(NEW_SPEED, 1);
 8002c44:	2101      	movs	r1, #1
 8002c46:	2007      	movs	r0, #7
 8002c48:	f000 f8a0 	bl	8002d8c <form_send_byte>
					break;
 8002c4c:	e046      	b.n	8002cdc <parsing_data+0x218>
				case 8:
					send_data.one = max_step(1); //    
 8002c4e:	2001      	movs	r0, #1
 8002c50:	f7ff fbc4 	bl	80023dc <max_step>
 8002c54:	0002      	movs	r2, r0
 8002c56:	4b26      	ldr	r3, [pc, #152]	; (8002cf0 <parsing_data+0x22c>)
 8002c58:	601a      	str	r2, [r3, #0]
					send_data.two = max_step(2);
 8002c5a:	2002      	movs	r0, #2
 8002c5c:	f7ff fbbe 	bl	80023dc <max_step>
 8002c60:	0002      	movs	r2, r0
 8002c62:	4b23      	ldr	r3, [pc, #140]	; (8002cf0 <parsing_data+0x22c>)
 8002c64:	605a      	str	r2, [r3, #4]
					form_send_byte(STEP_COUNT, 2);
 8002c66:	2102      	movs	r1, #2
 8002c68:	2008      	movs	r0, #8
 8002c6a:	f000 f88f 	bl	8002d8c <form_send_byte>
					break;
 8002c6e:	e035      	b.n	8002cdc <parsing_data+0x218>
				case 9:
					send_data.one = 0x01;   //  
 8002c70:	4b1f      	ldr	r3, [pc, #124]	; (8002cf0 <parsing_data+0x22c>)
 8002c72:	2201      	movs	r2, #1
 8002c74:	601a      	str	r2, [r3, #0]
					form_send_byte(STOP_MOTOR, 1);
 8002c76:	2101      	movs	r1, #1
 8002c78:	2009      	movs	r0, #9
 8002c7a:	f000 f887 	bl	8002d8c <form_send_byte>
					stop_motor();           //  
 8002c7e:	f7ff f863 	bl	8001d48 <stop_motor>
					break;
 8002c82:	e02b      	b.n	8002cdc <parsing_data+0x218>
				case 10:
					send_data.one = VERSIONS; //  
 8002c84:	4b1a      	ldr	r3, [pc, #104]	; (8002cf0 <parsing_data+0x22c>)
 8002c86:	2201      	movs	r2, #1
 8002c88:	601a      	str	r2, [r3, #0]
					form_send_byte(VERSION, 1);
 8002c8a:	2101      	movs	r1, #1
 8002c8c:	200a      	movs	r0, #10
 8002c8e:	f000 f87d 	bl	8002d8c <form_send_byte>
					break;
 8002c92:	e023      	b.n	8002cdc <parsing_data+0x218>
				case 11:
					send_data.one = set_pid(make_32bit(husart2.rx_buffer + 3));
 8002c94:	4b17      	ldr	r3, [pc, #92]	; (8002cf4 <parsing_data+0x230>)
 8002c96:	0018      	movs	r0, r3
 8002c98:	f000 f8f6 	bl	8002e88 <make_32bit>
 8002c9c:	0003      	movs	r3, r0
 8002c9e:	0018      	movs	r0, r3
 8002ca0:	f000 fd04 	bl	80036ac <set_pid>
 8002ca4:	0002      	movs	r2, r0
 8002ca6:	4b12      	ldr	r3, [pc, #72]	; (8002cf0 <parsing_data+0x22c>)
 8002ca8:	601a      	str	r2, [r3, #0]
					form_send_byte(NEW_PID, 1);
 8002caa:	2101      	movs	r1, #1
 8002cac:	200b      	movs	r0, #11
 8002cae:	f000 f86d 	bl	8002d8c <form_send_byte>
					break;
 8002cb2:	e013      	b.n	8002cdc <parsing_data+0x218>
				case 12:
					send_data.one = 0x01;
 8002cb4:	4b0e      	ldr	r3, [pc, #56]	; (8002cf0 <parsing_data+0x22c>)
 8002cb6:	2201      	movs	r2, #1
 8002cb8:	601a      	str	r2, [r3, #0]
					form_send_byte(RESTARTS, 1);
 8002cba:	2101      	movs	r1, #1
 8002cbc:	200c      	movs	r0, #12
 8002cbe:	f000 f865 	bl	8002d8c <form_send_byte>
					while (1);
 8002cc2:	e7fe      	b.n	8002cc2 <parsing_data+0x1fe>
					break;
				}
			} else {                                       //    
				send_data.one = 0x00;   //   
 8002cc4:	4b0a      	ldr	r3, [pc, #40]	; (8002cf0 <parsing_data+0x22c>)
 8002cc6:	2200      	movs	r2, #0
 8002cc8:	601a      	str	r2, [r3, #0]
				form_send_byte(husart2.rx_buffer[2], 0);
 8002cca:	4b06      	ldr	r3, [pc, #24]	; (8002ce4 <parsing_data+0x220>)
 8002ccc:	2222      	movs	r2, #34	; 0x22
 8002cce:	5c9b      	ldrb	r3, [r3, r2]
 8002cd0:	2100      	movs	r1, #0
 8002cd2:	0018      	movs	r0, r3
 8002cd4:	f000 f85a 	bl	8002d8c <form_send_byte>
			}
		}
	}
}
 8002cd8:	e000      	b.n	8002cdc <parsing_data+0x218>
					break;
 8002cda:	46c0      	nop			; (mov r8, r8)
}
 8002cdc:	46c0      	nop			; (mov r8, r8)
 8002cde:	46bd      	mov	sp, r7
 8002ce0:	b003      	add	sp, #12
 8002ce2:	bd90      	pop	{r4, r7, pc}
 8002ce4:	20000090 	.word	0x20000090
 8002ce8:	200000b0 	.word	0x200000b0
 8002cec:	08003958 	.word	0x08003958
 8002cf0:	200000d4 	.word	0x200000d4
 8002cf4:	200000b3 	.word	0x200000b3
 8002cf8:	200000b7 	.word	0x200000b7

08002cfc <read_flag>:

uint32_t read_flag(void) {           //      
 8002cfc:	b580      	push	{r7, lr}
 8002cfe:	b082      	sub	sp, #8
 8002d00:	af00      	add	r7, sp, #0
	uint32_t data = 0;
 8002d02:	2300      	movs	r3, #0
 8002d04:	607b      	str	r3, [r7, #4]
	data = point_flags->ir_filter;
 8002d06:	4b1f      	ldr	r3, [pc, #124]	; (8002d84 <read_flag+0x88>)
 8002d08:	681b      	ldr	r3, [r3, #0]
 8002d0a:	781b      	ldrb	r3, [r3, #0]
 8002d0c:	061b      	lsls	r3, r3, #24
 8002d0e:	0fdb      	lsrs	r3, r3, #31
 8002d10:	b2db      	uxtb	r3, r3
 8002d12:	607b      	str	r3, [r7, #4]
	data |= point_flags->iris_drive << 1;
 8002d14:	4b1b      	ldr	r3, [pc, #108]	; (8002d84 <read_flag+0x88>)
 8002d16:	681b      	ldr	r3, [r3, #0]
 8002d18:	785b      	ldrb	r3, [r3, #1]
 8002d1a:	07db      	lsls	r3, r3, #31
 8002d1c:	0fdb      	lsrs	r3, r3, #31
 8002d1e:	b2db      	uxtb	r3, r3
 8002d20:	005b      	lsls	r3, r3, #1
 8002d22:	001a      	movs	r2, r3
 8002d24:	687b      	ldr	r3, [r7, #4]
 8002d26:	4313      	orrs	r3, r2
 8002d28:	607b      	str	r3, [r7, #4]
	data |= point_flags->set_led << 2;        //??
 8002d2a:	4b16      	ldr	r3, [pc, #88]	; (8002d84 <read_flag+0x88>)
 8002d2c:	681b      	ldr	r3, [r3, #0]
 8002d2e:	785b      	ldrb	r3, [r3, #1]
 8002d30:	079b      	lsls	r3, r3, #30
 8002d32:	0fdb      	lsrs	r3, r3, #31
 8002d34:	b2db      	uxtb	r3, r3
 8002d36:	009b      	lsls	r3, r3, #2
 8002d38:	001a      	movs	r2, r3
 8002d3a:	687b      	ldr	r3, [r7, #4]
 8002d3c:	4313      	orrs	r3, r2
 8002d3e:	607b      	str	r3, [r7, #4]
	if (READ_MOTOR1)
 8002d40:	2390      	movs	r3, #144	; 0x90
 8002d42:	05db      	lsls	r3, r3, #23
 8002d44:	691a      	ldr	r2, [r3, #16]
 8002d46:	2380      	movs	r3, #128	; 0x80
 8002d48:	019b      	lsls	r3, r3, #6
 8002d4a:	4013      	ands	r3, r2
 8002d4c:	d003      	beq.n	8002d56 <read_flag+0x5a>
		data |= 1 << 3;
 8002d4e:	687b      	ldr	r3, [r7, #4]
 8002d50:	2208      	movs	r2, #8
 8002d52:	4313      	orrs	r3, r2
 8002d54:	607b      	str	r3, [r7, #4]
	if (READ_MOTOR2)
 8002d56:	2390      	movs	r3, #144	; 0x90
 8002d58:	05db      	lsls	r3, r3, #23
 8002d5a:	691a      	ldr	r2, [r3, #16]
 8002d5c:	2380      	movs	r3, #128	; 0x80
 8002d5e:	01db      	lsls	r3, r3, #7
 8002d60:	4013      	ands	r3, r2
 8002d62:	d003      	beq.n	8002d6c <read_flag+0x70>
		data |= 1 << 4;
 8002d64:	687b      	ldr	r3, [r7, #4]
 8002d66:	2210      	movs	r2, #16
 8002d68:	4313      	orrs	r3, r2
 8002d6a:	607b      	str	r3, [r7, #4]
	data |= pid_param << 5;
 8002d6c:	4b06      	ldr	r3, [pc, #24]	; (8002d88 <read_flag+0x8c>)
 8002d6e:	781b      	ldrb	r3, [r3, #0]
 8002d70:	015b      	lsls	r3, r3, #5
 8002d72:	001a      	movs	r2, r3
 8002d74:	687b      	ldr	r3, [r7, #4]
 8002d76:	4313      	orrs	r3, r2
 8002d78:	607b      	str	r3, [r7, #4]
	return data;
 8002d7a:	687b      	ldr	r3, [r7, #4]
}
 8002d7c:	0018      	movs	r0, r3
 8002d7e:	46bd      	mov	sp, r7
 8002d80:	b002      	add	sp, #8
 8002d82:	bd80      	pop	{r7, pc}
 8002d84:	20000000 	.word	0x20000000
 8002d88:	2000001c 	.word	0x2000001c

08002d8c <form_send_byte>:

void form_send_byte(uint8_t number_send, uint8_t num_byte) { //    .   32   
 8002d8c:	b580      	push	{r7, lr}
 8002d8e:	b082      	sub	sp, #8
 8002d90:	af00      	add	r7, sp, #0
 8002d92:	0002      	movs	r2, r0
 8002d94:	1dfb      	adds	r3, r7, #7
 8002d96:	701a      	strb	r2, [r3, #0]
 8002d98:	1dbb      	adds	r3, r7, #6
 8002d9a:	1c0a      	adds	r2, r1, #0
 8002d9c:	701a      	strb	r2, [r3, #0]
	husart2.tx_buffer[0] = 0x02;        //  
 8002d9e:	4b38      	ldr	r3, [pc, #224]	; (8002e80 <form_send_byte+0xf4>)
 8002da0:	2202      	movs	r2, #2
 8002da2:	701a      	strb	r2, [r3, #0]
	husart2.tx_buffer[1] = num_byte;    //   
 8002da4:	4b36      	ldr	r3, [pc, #216]	; (8002e80 <form_send_byte+0xf4>)
 8002da6:	1dba      	adds	r2, r7, #6
 8002da8:	7812      	ldrb	r2, [r2, #0]
 8002daa:	705a      	strb	r2, [r3, #1]
	husart2.tx_buffer[2] = number_send; //   ( )
 8002dac:	4b34      	ldr	r3, [pc, #208]	; (8002e80 <form_send_byte+0xf4>)
 8002dae:	1dfa      	adds	r2, r7, #7
 8002db0:	7812      	ldrb	r2, [r2, #0]
 8002db2:	709a      	strb	r2, [r3, #2]
	divide_32bit(send_data.one, 3);    //    
 8002db4:	4b33      	ldr	r3, [pc, #204]	; (8002e84 <form_send_byte+0xf8>)
 8002db6:	681b      	ldr	r3, [r3, #0]
 8002db8:	2103      	movs	r1, #3
 8002dba:	0018      	movs	r0, r3
 8002dbc:	f000 f890 	bl	8002ee0 <divide_32bit>
	switch (num_byte) {
 8002dc0:	1dbb      	adds	r3, r7, #6
 8002dc2:	781b      	ldrb	r3, [r3, #0]
 8002dc4:	2b03      	cmp	r3, #3
 8002dc6:	d03b      	beq.n	8002e40 <form_send_byte+0xb4>
 8002dc8:	dc55      	bgt.n	8002e76 <form_send_byte+0xea>
 8002dca:	2b02      	cmp	r3, #2
 8002dcc:	d023      	beq.n	8002e16 <form_send_byte+0x8a>
 8002dce:	dc52      	bgt.n	8002e76 <form_send_byte+0xea>
 8002dd0:	2b00      	cmp	r3, #0
 8002dd2:	d002      	beq.n	8002dda <form_send_byte+0x4e>
 8002dd4:	2b01      	cmp	r3, #1
 8002dd6:	d00f      	beq.n	8002df8 <form_send_byte+0x6c>
		divide_32bit(send_data.three, 11);
		husart2.tx_buffer[15] = calcCRC(15, husart2.tx_buffer);
		UART2_transmit(16, husart2.tx_buffer);
		break;
	}
}
 8002dd8:	e04d      	b.n	8002e76 <form_send_byte+0xea>
		husart2.tx_buffer[3] = calcCRC(3, husart2.tx_buffer);
 8002dda:	4b29      	ldr	r3, [pc, #164]	; (8002e80 <form_send_byte+0xf4>)
 8002ddc:	0019      	movs	r1, r3
 8002dde:	2003      	movs	r0, #3
 8002de0:	f000 f8fe 	bl	8002fe0 <calcCRC>
 8002de4:	0003      	movs	r3, r0
 8002de6:	001a      	movs	r2, r3
 8002de8:	4b25      	ldr	r3, [pc, #148]	; (8002e80 <form_send_byte+0xf4>)
 8002dea:	70da      	strb	r2, [r3, #3]
		UART2_transmit(4, husart2.tx_buffer);
 8002dec:	4b24      	ldr	r3, [pc, #144]	; (8002e80 <form_send_byte+0xf4>)
 8002dee:	0019      	movs	r1, r3
 8002df0:	2004      	movs	r0, #4
 8002df2:	f7ff fdab 	bl	800294c <UART2_transmit>
		break;
 8002df6:	e03e      	b.n	8002e76 <form_send_byte+0xea>
		husart2.tx_buffer[7] = calcCRC(7, husart2.tx_buffer);
 8002df8:	4b21      	ldr	r3, [pc, #132]	; (8002e80 <form_send_byte+0xf4>)
 8002dfa:	0019      	movs	r1, r3
 8002dfc:	2007      	movs	r0, #7
 8002dfe:	f000 f8ef 	bl	8002fe0 <calcCRC>
 8002e02:	0003      	movs	r3, r0
 8002e04:	001a      	movs	r2, r3
 8002e06:	4b1e      	ldr	r3, [pc, #120]	; (8002e80 <form_send_byte+0xf4>)
 8002e08:	71da      	strb	r2, [r3, #7]
		UART2_transmit(8, husart2.tx_buffer);
 8002e0a:	4b1d      	ldr	r3, [pc, #116]	; (8002e80 <form_send_byte+0xf4>)
 8002e0c:	0019      	movs	r1, r3
 8002e0e:	2008      	movs	r0, #8
 8002e10:	f7ff fd9c 	bl	800294c <UART2_transmit>
		break;
 8002e14:	e02f      	b.n	8002e76 <form_send_byte+0xea>
		divide_32bit(send_data.two, 7);
 8002e16:	4b1b      	ldr	r3, [pc, #108]	; (8002e84 <form_send_byte+0xf8>)
 8002e18:	685b      	ldr	r3, [r3, #4]
 8002e1a:	2107      	movs	r1, #7
 8002e1c:	0018      	movs	r0, r3
 8002e1e:	f000 f85f 	bl	8002ee0 <divide_32bit>
		husart2.tx_buffer[11] = calcCRC(11, husart2.tx_buffer);
 8002e22:	4b17      	ldr	r3, [pc, #92]	; (8002e80 <form_send_byte+0xf4>)
 8002e24:	0019      	movs	r1, r3
 8002e26:	200b      	movs	r0, #11
 8002e28:	f000 f8da 	bl	8002fe0 <calcCRC>
 8002e2c:	0003      	movs	r3, r0
 8002e2e:	001a      	movs	r2, r3
 8002e30:	4b13      	ldr	r3, [pc, #76]	; (8002e80 <form_send_byte+0xf4>)
 8002e32:	72da      	strb	r2, [r3, #11]
		UART2_transmit(12, husart2.tx_buffer);
 8002e34:	4b12      	ldr	r3, [pc, #72]	; (8002e80 <form_send_byte+0xf4>)
 8002e36:	0019      	movs	r1, r3
 8002e38:	200c      	movs	r0, #12
 8002e3a:	f7ff fd87 	bl	800294c <UART2_transmit>
		break;
 8002e3e:	e01a      	b.n	8002e76 <form_send_byte+0xea>
		divide_32bit(send_data.two, 7);
 8002e40:	4b10      	ldr	r3, [pc, #64]	; (8002e84 <form_send_byte+0xf8>)
 8002e42:	685b      	ldr	r3, [r3, #4]
 8002e44:	2107      	movs	r1, #7
 8002e46:	0018      	movs	r0, r3
 8002e48:	f000 f84a 	bl	8002ee0 <divide_32bit>
		divide_32bit(send_data.three, 11);
 8002e4c:	4b0d      	ldr	r3, [pc, #52]	; (8002e84 <form_send_byte+0xf8>)
 8002e4e:	689b      	ldr	r3, [r3, #8]
 8002e50:	210b      	movs	r1, #11
 8002e52:	0018      	movs	r0, r3
 8002e54:	f000 f844 	bl	8002ee0 <divide_32bit>
		husart2.tx_buffer[15] = calcCRC(15, husart2.tx_buffer);
 8002e58:	4b09      	ldr	r3, [pc, #36]	; (8002e80 <form_send_byte+0xf4>)
 8002e5a:	0019      	movs	r1, r3
 8002e5c:	200f      	movs	r0, #15
 8002e5e:	f000 f8bf 	bl	8002fe0 <calcCRC>
 8002e62:	0003      	movs	r3, r0
 8002e64:	001a      	movs	r2, r3
 8002e66:	4b06      	ldr	r3, [pc, #24]	; (8002e80 <form_send_byte+0xf4>)
 8002e68:	73da      	strb	r2, [r3, #15]
		UART2_transmit(16, husart2.tx_buffer);
 8002e6a:	4b05      	ldr	r3, [pc, #20]	; (8002e80 <form_send_byte+0xf4>)
 8002e6c:	0019      	movs	r1, r3
 8002e6e:	2010      	movs	r0, #16
 8002e70:	f7ff fd6c 	bl	800294c <UART2_transmit>
		break;
 8002e74:	46c0      	nop			; (mov r8, r8)
}
 8002e76:	46c0      	nop			; (mov r8, r8)
 8002e78:	46bd      	mov	sp, r7
 8002e7a:	b002      	add	sp, #8
 8002e7c:	bd80      	pop	{r7, pc}
 8002e7e:	46c0      	nop			; (mov r8, r8)
 8002e80:	20000090 	.word	0x20000090
 8002e84:	200000d4 	.word	0x200000d4

08002e88 <make_32bit>:

uint32_t make_32bit(uint8_t *start_num) { //  32   
 8002e88:	b580      	push	{r7, lr}
 8002e8a:	b084      	sub	sp, #16
 8002e8c:	af00      	add	r7, sp, #0
 8002e8e:	6078      	str	r0, [r7, #4]
	uint32_t data = 0;
 8002e90:	2300      	movs	r3, #0
 8002e92:	60fb      	str	r3, [r7, #12]
	data = *start_num << 24;
 8002e94:	687b      	ldr	r3, [r7, #4]
 8002e96:	781b      	ldrb	r3, [r3, #0]
 8002e98:	061b      	lsls	r3, r3, #24
 8002e9a:	60fb      	str	r3, [r7, #12]
	start_num++;
 8002e9c:	687b      	ldr	r3, [r7, #4]
 8002e9e:	3301      	adds	r3, #1
 8002ea0:	607b      	str	r3, [r7, #4]
	data |= *start_num << 16;
 8002ea2:	687b      	ldr	r3, [r7, #4]
 8002ea4:	781b      	ldrb	r3, [r3, #0]
 8002ea6:	041b      	lsls	r3, r3, #16
 8002ea8:	001a      	movs	r2, r3
 8002eaa:	68fb      	ldr	r3, [r7, #12]
 8002eac:	4313      	orrs	r3, r2
 8002eae:	60fb      	str	r3, [r7, #12]
	start_num++;
 8002eb0:	687b      	ldr	r3, [r7, #4]
 8002eb2:	3301      	adds	r3, #1
 8002eb4:	607b      	str	r3, [r7, #4]
	data |= *start_num << 8;
 8002eb6:	687b      	ldr	r3, [r7, #4]
 8002eb8:	781b      	ldrb	r3, [r3, #0]
 8002eba:	021b      	lsls	r3, r3, #8
 8002ebc:	001a      	movs	r2, r3
 8002ebe:	68fb      	ldr	r3, [r7, #12]
 8002ec0:	4313      	orrs	r3, r2
 8002ec2:	60fb      	str	r3, [r7, #12]
	start_num++;
 8002ec4:	687b      	ldr	r3, [r7, #4]
 8002ec6:	3301      	adds	r3, #1
 8002ec8:	607b      	str	r3, [r7, #4]
	data |= *start_num;
 8002eca:	687b      	ldr	r3, [r7, #4]
 8002ecc:	781b      	ldrb	r3, [r3, #0]
 8002ece:	001a      	movs	r2, r3
 8002ed0:	68fb      	ldr	r3, [r7, #12]
 8002ed2:	4313      	orrs	r3, r2
 8002ed4:	60fb      	str	r3, [r7, #12]
	return data;
 8002ed6:	68fb      	ldr	r3, [r7, #12]
}
 8002ed8:	0018      	movs	r0, r3
 8002eda:	46bd      	mov	sp, r7
 8002edc:	b004      	add	sp, #16
 8002ede:	bd80      	pop	{r7, pc}

08002ee0 <divide_32bit>:

void divide_32bit(uint32_t data, uint8_t start_num) { //  32   
 8002ee0:	b580      	push	{r7, lr}
 8002ee2:	b082      	sub	sp, #8
 8002ee4:	af00      	add	r7, sp, #0
 8002ee6:	6078      	str	r0, [r7, #4]
 8002ee8:	000a      	movs	r2, r1
 8002eea:	1cfb      	adds	r3, r7, #3
 8002eec:	701a      	strb	r2, [r3, #0]
	husart2.tx_buffer[start_num] = data >> 24;
 8002eee:	687b      	ldr	r3, [r7, #4]
 8002ef0:	0e1a      	lsrs	r2, r3, #24
 8002ef2:	1cfb      	adds	r3, r7, #3
 8002ef4:	781b      	ldrb	r3, [r3, #0]
 8002ef6:	b2d1      	uxtb	r1, r2
 8002ef8:	4a0e      	ldr	r2, [pc, #56]	; (8002f34 <divide_32bit+0x54>)
 8002efa:	54d1      	strb	r1, [r2, r3]
	husart2.tx_buffer[start_num + 1] = data >> 16;
 8002efc:	687b      	ldr	r3, [r7, #4]
 8002efe:	0c1a      	lsrs	r2, r3, #16
 8002f00:	1cfb      	adds	r3, r7, #3
 8002f02:	781b      	ldrb	r3, [r3, #0]
 8002f04:	3301      	adds	r3, #1
 8002f06:	b2d1      	uxtb	r1, r2
 8002f08:	4a0a      	ldr	r2, [pc, #40]	; (8002f34 <divide_32bit+0x54>)
 8002f0a:	54d1      	strb	r1, [r2, r3]
	husart2.tx_buffer[start_num + 2] = data >> 8;
 8002f0c:	687b      	ldr	r3, [r7, #4]
 8002f0e:	0a1a      	lsrs	r2, r3, #8
 8002f10:	1cfb      	adds	r3, r7, #3
 8002f12:	781b      	ldrb	r3, [r3, #0]
 8002f14:	3302      	adds	r3, #2
 8002f16:	b2d1      	uxtb	r1, r2
 8002f18:	4a06      	ldr	r2, [pc, #24]	; (8002f34 <divide_32bit+0x54>)
 8002f1a:	54d1      	strb	r1, [r2, r3]
	husart2.tx_buffer[start_num + 3] = data;
 8002f1c:	1cfb      	adds	r3, r7, #3
 8002f1e:	781b      	ldrb	r3, [r3, #0]
 8002f20:	3303      	adds	r3, #3
 8002f22:	687a      	ldr	r2, [r7, #4]
 8002f24:	b2d1      	uxtb	r1, r2
 8002f26:	4a03      	ldr	r2, [pc, #12]	; (8002f34 <divide_32bit+0x54>)
 8002f28:	54d1      	strb	r1, [r2, r3]
}
 8002f2a:	46c0      	nop			; (mov r8, r8)
 8002f2c:	46bd      	mov	sp, r7
 8002f2e:	b002      	add	sp, #8
 8002f30:	bd80      	pop	{r7, pc}
 8002f32:	46c0      	nop			; (mov r8, r8)
 8002f34:	20000090 	.word	0x20000090

08002f38 <swuart_calcCRC>:

void swuart_calcCRC(uint8_t *datagram, uint8_t datagramLength) {
 8002f38:	b580      	push	{r7, lr}
 8002f3a:	b086      	sub	sp, #24
 8002f3c:	af00      	add	r7, sp, #0
 8002f3e:	6078      	str	r0, [r7, #4]
 8002f40:	000a      	movs	r2, r1
 8002f42:	1cfb      	adds	r3, r7, #3
 8002f44:	701a      	strb	r2, [r3, #0]
	int i, j;
	uint8_t *crc = datagram + (datagramLength - 1); // CRC located in last byte of message
 8002f46:	1cfb      	adds	r3, r7, #3
 8002f48:	781b      	ldrb	r3, [r3, #0]
 8002f4a:	3b01      	subs	r3, #1
 8002f4c:	687a      	ldr	r2, [r7, #4]
 8002f4e:	18d3      	adds	r3, r2, r3
 8002f50:	60bb      	str	r3, [r7, #8]
	uint8_t currentByte;
	*crc = 0;
 8002f52:	68bb      	ldr	r3, [r7, #8]
 8002f54:	2200      	movs	r2, #0
 8002f56:	701a      	strb	r2, [r3, #0]
	for (i = 0; i < (datagramLength - 1); i++) { // Execute for all bytes of a message
 8002f58:	2300      	movs	r3, #0
 8002f5a:	617b      	str	r3, [r7, #20]
 8002f5c:	e035      	b.n	8002fca <swuart_calcCRC+0x92>
		currentByte = datagram[i]; // Retrieve a byte to be sent from Array
 8002f5e:	697b      	ldr	r3, [r7, #20]
 8002f60:	687a      	ldr	r2, [r7, #4]
 8002f62:	18d2      	adds	r2, r2, r3
 8002f64:	230f      	movs	r3, #15
 8002f66:	18fb      	adds	r3, r7, r3
 8002f68:	7812      	ldrb	r2, [r2, #0]
 8002f6a:	701a      	strb	r2, [r3, #0]
		for (j = 0; j < 8; j++) {
 8002f6c:	2300      	movs	r3, #0
 8002f6e:	613b      	str	r3, [r7, #16]
 8002f70:	e025      	b.n	8002fbe <swuart_calcCRC+0x86>
			if ((*crc >> 7) ^ (currentByte & 0x01)) // update CRC based result of XOR operation
 8002f72:	68bb      	ldr	r3, [r7, #8]
 8002f74:	781b      	ldrb	r3, [r3, #0]
 8002f76:	09db      	lsrs	r3, r3, #7
 8002f78:	b2db      	uxtb	r3, r3
 8002f7a:	0019      	movs	r1, r3
 8002f7c:	230f      	movs	r3, #15
 8002f7e:	18fb      	adds	r3, r7, r3
 8002f80:	781b      	ldrb	r3, [r3, #0]
 8002f82:	2201      	movs	r2, #1
 8002f84:	4013      	ands	r3, r2
 8002f86:	4299      	cmp	r1, r3
 8002f88:	d00a      	beq.n	8002fa0 <swuart_calcCRC+0x68>
					{
				*crc = (*crc << 1) ^ 0x07;
 8002f8a:	68bb      	ldr	r3, [r7, #8]
 8002f8c:	781b      	ldrb	r3, [r3, #0]
 8002f8e:	005b      	lsls	r3, r3, #1
 8002f90:	b25b      	sxtb	r3, r3
 8002f92:	2207      	movs	r2, #7
 8002f94:	4053      	eors	r3, r2
 8002f96:	b25b      	sxtb	r3, r3
 8002f98:	b2da      	uxtb	r2, r3
 8002f9a:	68bb      	ldr	r3, [r7, #8]
 8002f9c:	701a      	strb	r2, [r3, #0]
 8002f9e:	e005      	b.n	8002fac <swuart_calcCRC+0x74>
			} else {
				*crc = (*crc << 1);
 8002fa0:	68bb      	ldr	r3, [r7, #8]
 8002fa2:	781b      	ldrb	r3, [r3, #0]
 8002fa4:	18db      	adds	r3, r3, r3
 8002fa6:	b2da      	uxtb	r2, r3
 8002fa8:	68bb      	ldr	r3, [r7, #8]
 8002faa:	701a      	strb	r2, [r3, #0]
			}
			currentByte = currentByte >> 1;
 8002fac:	220f      	movs	r2, #15
 8002fae:	18bb      	adds	r3, r7, r2
 8002fb0:	18ba      	adds	r2, r7, r2
 8002fb2:	7812      	ldrb	r2, [r2, #0]
 8002fb4:	0852      	lsrs	r2, r2, #1
 8002fb6:	701a      	strb	r2, [r3, #0]
		for (j = 0; j < 8; j++) {
 8002fb8:	693b      	ldr	r3, [r7, #16]
 8002fba:	3301      	adds	r3, #1
 8002fbc:	613b      	str	r3, [r7, #16]
 8002fbe:	693b      	ldr	r3, [r7, #16]
 8002fc0:	2b07      	cmp	r3, #7
 8002fc2:	ddd6      	ble.n	8002f72 <swuart_calcCRC+0x3a>
	for (i = 0; i < (datagramLength - 1); i++) { // Execute for all bytes of a message
 8002fc4:	697b      	ldr	r3, [r7, #20]
 8002fc6:	3301      	adds	r3, #1
 8002fc8:	617b      	str	r3, [r7, #20]
 8002fca:	1cfb      	adds	r3, r7, #3
 8002fcc:	781b      	ldrb	r3, [r3, #0]
 8002fce:	3b01      	subs	r3, #1
 8002fd0:	697a      	ldr	r2, [r7, #20]
 8002fd2:	429a      	cmp	r2, r3
 8002fd4:	dbc3      	blt.n	8002f5e <swuart_calcCRC+0x26>
		} // for CRC bit
	} // for message byte
}
 8002fd6:	46c0      	nop			; (mov r8, r8)
 8002fd8:	46c0      	nop			; (mov r8, r8)
 8002fda:	46bd      	mov	sp, r7
 8002fdc:	b006      	add	sp, #24
 8002fde:	bd80      	pop	{r7, pc}

08002fe0 <calcCRC>:

uint8_t calcCRC(uint8_t len, uint8_t *buf) {
 8002fe0:	b580      	push	{r7, lr}
 8002fe2:	b084      	sub	sp, #16
 8002fe4:	af00      	add	r7, sp, #0
 8002fe6:	0002      	movs	r2, r0
 8002fe8:	6039      	str	r1, [r7, #0]
 8002fea:	1dfb      	adds	r3, r7, #7
 8002fec:	701a      	strb	r2, [r3, #0]
	uint8_t r = 0;
 8002fee:	230f      	movs	r3, #15
 8002ff0:	18fb      	adds	r3, r7, r3
 8002ff2:	2200      	movs	r2, #0
 8002ff4:	701a      	strb	r2, [r3, #0]
	for (int i = 0; i < len; i++) {
 8002ff6:	2300      	movs	r3, #0
 8002ff8:	60bb      	str	r3, [r7, #8]
 8002ffa:	e00c      	b.n	8003016 <calcCRC+0x36>
		r -= buf[i];
 8002ffc:	68bb      	ldr	r3, [r7, #8]
 8002ffe:	683a      	ldr	r2, [r7, #0]
 8003000:	18d3      	adds	r3, r2, r3
 8003002:	781a      	ldrb	r2, [r3, #0]
 8003004:	210f      	movs	r1, #15
 8003006:	187b      	adds	r3, r7, r1
 8003008:	1879      	adds	r1, r7, r1
 800300a:	7809      	ldrb	r1, [r1, #0]
 800300c:	1a8a      	subs	r2, r1, r2
 800300e:	701a      	strb	r2, [r3, #0]
	for (int i = 0; i < len; i++) {
 8003010:	68bb      	ldr	r3, [r7, #8]
 8003012:	3301      	adds	r3, #1
 8003014:	60bb      	str	r3, [r7, #8]
 8003016:	1dfb      	adds	r3, r7, #7
 8003018:	781b      	ldrb	r3, [r3, #0]
 800301a:	68ba      	ldr	r2, [r7, #8]
 800301c:	429a      	cmp	r2, r3
 800301e:	dbed      	blt.n	8002ffc <calcCRC+0x1c>
	}
	r &= 0x7F;
 8003020:	200f      	movs	r0, #15
 8003022:	183b      	adds	r3, r7, r0
 8003024:	183a      	adds	r2, r7, r0
 8003026:	7812      	ldrb	r2, [r2, #0]
 8003028:	217f      	movs	r1, #127	; 0x7f
 800302a:	400a      	ands	r2, r1
 800302c:	701a      	strb	r2, [r3, #0]
	if (r < 0x21) {
 800302e:	183b      	adds	r3, r7, r0
 8003030:	781b      	ldrb	r3, [r3, #0]
 8003032:	2b20      	cmp	r3, #32
 8003034:	d804      	bhi.n	8003040 <calcCRC+0x60>
		r += 0x21;
 8003036:	183b      	adds	r3, r7, r0
 8003038:	183a      	adds	r2, r7, r0
 800303a:	7812      	ldrb	r2, [r2, #0]
 800303c:	3221      	adds	r2, #33	; 0x21
 800303e:	701a      	strb	r2, [r3, #0]
	}
#ifdef DEBUG_MODE
     return 1;
#endif
	return r;
 8003040:	230f      	movs	r3, #15
 8003042:	18fb      	adds	r3, r7, r3
 8003044:	781b      	ldrb	r3, [r3, #0]
}
 8003046:	0018      	movs	r0, r3
 8003048:	46bd      	mov	sp, r7
 800304a:	b004      	add	sp, #16
 800304c:	bd80      	pop	{r7, pc}
	...

08003050 <USART1_IRQHandler>:

void USART1_IRQHandler(void) {
 8003050:	b580      	push	{r7, lr}
 8003052:	af00      	add	r7, sp, #0
	if (READ_BIT(USART1->ISR, USART_ISR_TXE)) {
 8003054:	4b27      	ldr	r3, [pc, #156]	; (80030f4 <USART1_IRQHandler+0xa4>)
 8003056:	69db      	ldr	r3, [r3, #28]
 8003058:	2280      	movs	r2, #128	; 0x80
 800305a:	4013      	ands	r3, r2
 800305c:	d020      	beq.n	80030a0 <USART1_IRQHandler+0x50>
		if (husart1.tx_size > husart1.tx_counter) {
 800305e:	4b26      	ldr	r3, [pc, #152]	; (80030f8 <USART1_IRQHandler+0xa8>)
 8003060:	7eda      	ldrb	r2, [r3, #27]
 8003062:	4b25      	ldr	r3, [pc, #148]	; (80030f8 <USART1_IRQHandler+0xa8>)
 8003064:	7e5b      	ldrb	r3, [r3, #25]
 8003066:	429a      	cmp	r2, r3
 8003068:	d90e      	bls.n	8003088 <USART1_IRQHandler+0x38>
			USART1->TDR = husart1.tx_buffer[husart1.tx_counter];
 800306a:	4b23      	ldr	r3, [pc, #140]	; (80030f8 <USART1_IRQHandler+0xa8>)
 800306c:	7e5b      	ldrb	r3, [r3, #25]
 800306e:	001a      	movs	r2, r3
 8003070:	4b21      	ldr	r3, [pc, #132]	; (80030f8 <USART1_IRQHandler+0xa8>)
 8003072:	5c9a      	ldrb	r2, [r3, r2]
 8003074:	4b1f      	ldr	r3, [pc, #124]	; (80030f4 <USART1_IRQHandler+0xa4>)
 8003076:	b292      	uxth	r2, r2
 8003078:	851a      	strh	r2, [r3, #40]	; 0x28
			husart1.tx_counter++;
 800307a:	4b1f      	ldr	r3, [pc, #124]	; (80030f8 <USART1_IRQHandler+0xa8>)
 800307c:	7e5b      	ldrb	r3, [r3, #25]
 800307e:	3301      	adds	r3, #1
 8003080:	b2da      	uxtb	r2, r3
 8003082:	4b1d      	ldr	r3, [pc, #116]	; (80030f8 <USART1_IRQHandler+0xa8>)
 8003084:	765a      	strb	r2, [r3, #25]
 8003086:	e00b      	b.n	80030a0 <USART1_IRQHandler+0x50>
		} else {
			CLEAR_BIT(USART1->CR1, USART_CR1_TXEIE);
 8003088:	4b1a      	ldr	r3, [pc, #104]	; (80030f4 <USART1_IRQHandler+0xa4>)
 800308a:	681a      	ldr	r2, [r3, #0]
 800308c:	4b19      	ldr	r3, [pc, #100]	; (80030f4 <USART1_IRQHandler+0xa4>)
 800308e:	2180      	movs	r1, #128	; 0x80
 8003090:	438a      	bics	r2, r1
 8003092:	601a      	str	r2, [r3, #0]
			husart1.tx_counter = 0;
 8003094:	4b18      	ldr	r3, [pc, #96]	; (80030f8 <USART1_IRQHandler+0xa8>)
 8003096:	2200      	movs	r2, #0
 8003098:	765a      	strb	r2, [r3, #25]
			husart1.tx_size = 0;
 800309a:	4b17      	ldr	r3, [pc, #92]	; (80030f8 <USART1_IRQHandler+0xa8>)
 800309c:	2200      	movs	r2, #0
 800309e:	76da      	strb	r2, [r3, #27]
		}
	}

	if (READ_BIT(USART1->ISR, USART_ISR_RXNE)) {   //    USART
 80030a0:	4b14      	ldr	r3, [pc, #80]	; (80030f4 <USART1_IRQHandler+0xa4>)
 80030a2:	69db      	ldr	r3, [r3, #28]
 80030a4:	2220      	movs	r2, #32
 80030a6:	4013      	ands	r3, r2
 80030a8:	d016      	beq.n	80030d8 <USART1_IRQHandler+0x88>
		husart1.rx_buffer[husart1.rx_counter] = USART1->RDR; //      rx_buffer
 80030aa:	4b12      	ldr	r3, [pc, #72]	; (80030f4 <USART1_IRQHandler+0xa4>)
 80030ac:	8c9b      	ldrh	r3, [r3, #36]	; 0x24
 80030ae:	b29a      	uxth	r2, r3
 80030b0:	4b11      	ldr	r3, [pc, #68]	; (80030f8 <USART1_IRQHandler+0xa8>)
 80030b2:	7e9b      	ldrb	r3, [r3, #26]
 80030b4:	0019      	movs	r1, r3
 80030b6:	b2d2      	uxtb	r2, r2
 80030b8:	4b0f      	ldr	r3, [pc, #60]	; (80030f8 <USART1_IRQHandler+0xa8>)
 80030ba:	185b      	adds	r3, r3, r1
 80030bc:	729a      	strb	r2, [r3, #10]
		husart1.rx_counter++;              //     1
 80030be:	4b0e      	ldr	r3, [pc, #56]	; (80030f8 <USART1_IRQHandler+0xa8>)
 80030c0:	7e9b      	ldrb	r3, [r3, #26]
 80030c2:	3301      	adds	r3, #1
 80030c4:	b2da      	uxtb	r2, r3
 80030c6:	4b0c      	ldr	r3, [pc, #48]	; (80030f8 <USART1_IRQHandler+0xa8>)
 80030c8:	769a      	strb	r2, [r3, #26]
		if (husart1.rx_counter > 14)
 80030ca:	4b0b      	ldr	r3, [pc, #44]	; (80030f8 <USART1_IRQHandler+0xa8>)
 80030cc:	7e9b      	ldrb	r3, [r3, #26]
 80030ce:	2b0e      	cmp	r3, #14
 80030d0:	d902      	bls.n	80030d8 <USART1_IRQHandler+0x88>
			husart1.rx_counter = 0;
 80030d2:	4b09      	ldr	r3, [pc, #36]	; (80030f8 <USART1_IRQHandler+0xa8>)
 80030d4:	2200      	movs	r2, #0
 80030d6:	769a      	strb	r2, [r3, #26]
	}
	if (READ_BIT(USART1->ISR, USART_ISR_ORE)) {       //   OVRN
 80030d8:	4b06      	ldr	r3, [pc, #24]	; (80030f4 <USART1_IRQHandler+0xa4>)
 80030da:	69db      	ldr	r3, [r3, #28]
 80030dc:	2208      	movs	r2, #8
 80030de:	4013      	ands	r3, r2
 80030e0:	d005      	beq.n	80030ee <USART1_IRQHandler+0x9e>
		SET_BIT(USART1->ICR, USART_ICR_ORECF);              //  OVRN
 80030e2:	4b04      	ldr	r3, [pc, #16]	; (80030f4 <USART1_IRQHandler+0xa4>)
 80030e4:	6a1a      	ldr	r2, [r3, #32]
 80030e6:	4b03      	ldr	r3, [pc, #12]	; (80030f4 <USART1_IRQHandler+0xa4>)
 80030e8:	2108      	movs	r1, #8
 80030ea:	430a      	orrs	r2, r1
 80030ec:	621a      	str	r2, [r3, #32]
	/*if (READ_BIT(USART1->ISR, USART_ISR_IDLE)) {       //   IDLE
		SET_BIT(USART1->ICR, USART_ICR_IDLECF);              //  IDLE
		husart1.rx_ok = 1;
		husart1.rx_counter = 0;              //   
	}*/
}
 80030ee:	46c0      	nop			; (mov r8, r8)
 80030f0:	46bd      	mov	sp, r7
 80030f2:	bd80      	pop	{r7, pc}
 80030f4:	40013800 	.word	0x40013800
 80030f8:	20000070 	.word	0x20000070

080030fc <USART2_IRQHandler>:

void USART2_IRQHandler(void) {
 80030fc:	b580      	push	{r7, lr}
 80030fe:	af00      	add	r7, sp, #0
	if (READ_BIT(USART2->ISR, USART_ISR_TXE)) {
 8003100:	4b38      	ldr	r3, [pc, #224]	; (80031e4 <USART2_IRQHandler+0xe8>)
 8003102:	69db      	ldr	r3, [r3, #28]
 8003104:	2280      	movs	r2, #128	; 0x80
 8003106:	4013      	ands	r3, r2
 8003108:	d027      	beq.n	800315a <USART2_IRQHandler+0x5e>
		if (husart2.tx_size > husart2.tx_counter) {
 800310a:	4b37      	ldr	r3, [pc, #220]	; (80031e8 <USART2_IRQHandler+0xec>)
 800310c:	2242      	movs	r2, #66	; 0x42
 800310e:	5c9a      	ldrb	r2, [r3, r2]
 8003110:	4b35      	ldr	r3, [pc, #212]	; (80031e8 <USART2_IRQHandler+0xec>)
 8003112:	2140      	movs	r1, #64	; 0x40
 8003114:	5c5b      	ldrb	r3, [r3, r1]
 8003116:	429a      	cmp	r2, r3
 8003118:	d911      	bls.n	800313e <USART2_IRQHandler+0x42>
			USART2->TDR = husart2.tx_buffer[husart2.tx_counter];
 800311a:	4b33      	ldr	r3, [pc, #204]	; (80031e8 <USART2_IRQHandler+0xec>)
 800311c:	2240      	movs	r2, #64	; 0x40
 800311e:	5c9b      	ldrb	r3, [r3, r2]
 8003120:	001a      	movs	r2, r3
 8003122:	4b31      	ldr	r3, [pc, #196]	; (80031e8 <USART2_IRQHandler+0xec>)
 8003124:	5c9a      	ldrb	r2, [r3, r2]
 8003126:	4b2f      	ldr	r3, [pc, #188]	; (80031e4 <USART2_IRQHandler+0xe8>)
 8003128:	b292      	uxth	r2, r2
 800312a:	851a      	strh	r2, [r3, #40]	; 0x28
			husart2.tx_counter++;
 800312c:	4b2e      	ldr	r3, [pc, #184]	; (80031e8 <USART2_IRQHandler+0xec>)
 800312e:	2240      	movs	r2, #64	; 0x40
 8003130:	5c9b      	ldrb	r3, [r3, r2]
 8003132:	3301      	adds	r3, #1
 8003134:	b2d9      	uxtb	r1, r3
 8003136:	4b2c      	ldr	r3, [pc, #176]	; (80031e8 <USART2_IRQHandler+0xec>)
 8003138:	2240      	movs	r2, #64	; 0x40
 800313a:	5499      	strb	r1, [r3, r2]
 800313c:	e00d      	b.n	800315a <USART2_IRQHandler+0x5e>
		} else {
			USART2->CR1 &= ~USART_CR1_TXEIE;      //  
 800313e:	4b29      	ldr	r3, [pc, #164]	; (80031e4 <USART2_IRQHandler+0xe8>)
 8003140:	681a      	ldr	r2, [r3, #0]
 8003142:	4b28      	ldr	r3, [pc, #160]	; (80031e4 <USART2_IRQHandler+0xe8>)
 8003144:	2180      	movs	r1, #128	; 0x80
 8003146:	438a      	bics	r2, r1
 8003148:	601a      	str	r2, [r3, #0]
			husart2.tx_counter = 0;
 800314a:	4b27      	ldr	r3, [pc, #156]	; (80031e8 <USART2_IRQHandler+0xec>)
 800314c:	2240      	movs	r2, #64	; 0x40
 800314e:	2100      	movs	r1, #0
 8003150:	5499      	strb	r1, [r3, r2]
			husart2.tx_size = 0;
 8003152:	4b25      	ldr	r3, [pc, #148]	; (80031e8 <USART2_IRQHandler+0xec>)
 8003154:	2242      	movs	r2, #66	; 0x42
 8003156:	2100      	movs	r1, #0
 8003158:	5499      	strb	r1, [r3, r2]
		}
	}
	if (READ_BIT(USART2->ISR, USART_ISR_RXNE)) {   //    USART
 800315a:	4b22      	ldr	r3, [pc, #136]	; (80031e4 <USART2_IRQHandler+0xe8>)
 800315c:	69db      	ldr	r3, [r3, #28]
 800315e:	2220      	movs	r2, #32
 8003160:	4013      	ands	r3, r2
 8003162:	d01e      	beq.n	80031a2 <USART2_IRQHandler+0xa6>
		husart2.rx_buffer[husart2.rx_counter] = USART2->RDR; //      rx_buffer
 8003164:	4b1f      	ldr	r3, [pc, #124]	; (80031e4 <USART2_IRQHandler+0xe8>)
 8003166:	8c9b      	ldrh	r3, [r3, #36]	; 0x24
 8003168:	b299      	uxth	r1, r3
 800316a:	4b1f      	ldr	r3, [pc, #124]	; (80031e8 <USART2_IRQHandler+0xec>)
 800316c:	2241      	movs	r2, #65	; 0x41
 800316e:	5c9b      	ldrb	r3, [r3, r2]
 8003170:	0018      	movs	r0, r3
 8003172:	b2c9      	uxtb	r1, r1
 8003174:	4b1c      	ldr	r3, [pc, #112]	; (80031e8 <USART2_IRQHandler+0xec>)
 8003176:	2220      	movs	r2, #32
 8003178:	181b      	adds	r3, r3, r0
 800317a:	189b      	adds	r3, r3, r2
 800317c:	1c0a      	adds	r2, r1, #0
 800317e:	701a      	strb	r2, [r3, #0]
		husart2.rx_counter++;              //     1
 8003180:	4b19      	ldr	r3, [pc, #100]	; (80031e8 <USART2_IRQHandler+0xec>)
 8003182:	2241      	movs	r2, #65	; 0x41
 8003184:	5c9b      	ldrb	r3, [r3, r2]
 8003186:	3301      	adds	r3, #1
 8003188:	b2d9      	uxtb	r1, r3
 800318a:	4b17      	ldr	r3, [pc, #92]	; (80031e8 <USART2_IRQHandler+0xec>)
 800318c:	2241      	movs	r2, #65	; 0x41
 800318e:	5499      	strb	r1, [r3, r2]
		if (husart2.rx_counter > 31)
 8003190:	4b15      	ldr	r3, [pc, #84]	; (80031e8 <USART2_IRQHandler+0xec>)
 8003192:	2241      	movs	r2, #65	; 0x41
 8003194:	5c9b      	ldrb	r3, [r3, r2]
 8003196:	2b1f      	cmp	r3, #31
 8003198:	d903      	bls.n	80031a2 <USART2_IRQHandler+0xa6>
			husart2.rx_counter = 0;
 800319a:	4b13      	ldr	r3, [pc, #76]	; (80031e8 <USART2_IRQHandler+0xec>)
 800319c:	2241      	movs	r2, #65	; 0x41
 800319e:	2100      	movs	r1, #0
 80031a0:	5499      	strb	r1, [r3, r2]
	}
	if (READ_BIT(USART2->ISR, USART_ISR_IDLE)) {       //   IDLE
 80031a2:	4b10      	ldr	r3, [pc, #64]	; (80031e4 <USART2_IRQHandler+0xe8>)
 80031a4:	69db      	ldr	r3, [r3, #28]
 80031a6:	2210      	movs	r2, #16
 80031a8:	4013      	ands	r3, r2
 80031aa:	d00d      	beq.n	80031c8 <USART2_IRQHandler+0xcc>
		SET_BIT(USART2->ICR, USART_ICR_IDLECF);              //  IDLE
 80031ac:	4b0d      	ldr	r3, [pc, #52]	; (80031e4 <USART2_IRQHandler+0xe8>)
 80031ae:	6a1a      	ldr	r2, [r3, #32]
 80031b0:	4b0c      	ldr	r3, [pc, #48]	; (80031e4 <USART2_IRQHandler+0xe8>)
 80031b2:	2110      	movs	r1, #16
 80031b4:	430a      	orrs	r2, r1
 80031b6:	621a      	str	r2, [r3, #32]
		husart2.rx_ok = 1;
 80031b8:	4b0b      	ldr	r3, [pc, #44]	; (80031e8 <USART2_IRQHandler+0xec>)
 80031ba:	2243      	movs	r2, #67	; 0x43
 80031bc:	2101      	movs	r1, #1
 80031be:	5499      	strb	r1, [r3, r2]
		husart2.rx_counter = 0;              //   
 80031c0:	4b09      	ldr	r3, [pc, #36]	; (80031e8 <USART2_IRQHandler+0xec>)
 80031c2:	2241      	movs	r2, #65	; 0x41
 80031c4:	2100      	movs	r1, #0
 80031c6:	5499      	strb	r1, [r3, r2]
	}
	if (READ_BIT(USART2->ISR, USART_ISR_ORE)) {       //   OVRN
 80031c8:	4b06      	ldr	r3, [pc, #24]	; (80031e4 <USART2_IRQHandler+0xe8>)
 80031ca:	69db      	ldr	r3, [r3, #28]
 80031cc:	2208      	movs	r2, #8
 80031ce:	4013      	ands	r3, r2
 80031d0:	d005      	beq.n	80031de <USART2_IRQHandler+0xe2>
		SET_BIT(USART2->ICR, USART_ICR_ORECF);              //  OVRN
 80031d2:	4b04      	ldr	r3, [pc, #16]	; (80031e4 <USART2_IRQHandler+0xe8>)
 80031d4:	6a1a      	ldr	r2, [r3, #32]
 80031d6:	4b03      	ldr	r3, [pc, #12]	; (80031e4 <USART2_IRQHandler+0xe8>)
 80031d8:	2108      	movs	r1, #8
 80031da:	430a      	orrs	r2, r1
 80031dc:	621a      	str	r2, [r3, #32]
	}
}
 80031de:	46c0      	nop			; (mov r8, r8)
 80031e0:	46bd      	mov	sp, r7
 80031e2:	bd80      	pop	{r7, pc}
 80031e4:	40004400 	.word	0x40004400
 80031e8:	20000090 	.word	0x20000090

080031ec <main>:


volatile uint32_t count = 0;
uint8_t flg = 0;

int main(void) {
 80031ec:	b5f0      	push	{r4, r5, r6, r7, lr}
 80031ee:	b085      	sub	sp, #20
 80031f0:	af04      	add	r7, sp, #16
	init_rcc();                              // 48
 80031f2:	f7fe fa2b 	bl	800164c <init_rcc>
	CMSIS_SysTick_Timer_init();              // 
 80031f6:	f7fe facd 	bl	8001794 <CMSIS_SysTick_Timer_init>
	init_pins();                             // 
 80031fa:	f7fe fc7f 	bl	8001afc <init_pins>
	init_tim17(3, 10000);                    //    + 
 80031fe:	4b5e      	ldr	r3, [pc, #376]	; (8003378 <main+0x18c>)
 8003200:	0019      	movs	r1, r3
 8003202:	2003      	movs	r0, #3
 8003204:	f7fe fc0c 	bl	8001a20 <init_tim17>
	init_tim16(3, 10000);                    //    + 
 8003208:	4b5b      	ldr	r3, [pc, #364]	; (8003378 <main+0x18c>)
 800320a:	0019      	movs	r1, r3
 800320c:	2003      	movs	r0, #3
 800320e:	f7fe fc41 	bl	8001a94 <init_tim16>
	init_Uart1 (115200);                     //  
 8003212:	23e1      	movs	r3, #225	; 0xe1
 8003214:	025b      	lsls	r3, r3, #9
 8003216:	0018      	movs	r0, r3
 8003218:	f7ff fa4a 	bl	80026b0 <init_Uart1>
	ADC_init();                              //  + 
 800321c:	f7fe f844 	bl	80012a8 <ADC_init>
	EN_ON;                                   //    
 8003220:	4b56      	ldr	r3, [pc, #344]	; (800337c <main+0x190>)
 8003222:	699a      	ldr	r2, [r3, #24]
 8003224:	4b55      	ldr	r3, [pc, #340]	; (800337c <main+0x190>)
 8003226:	2102      	movs	r1, #2
 8003228:	430a      	orrs	r2, r1
 800322a:	619a      	str	r2, [r3, #24]
#ifndef DEBUG_MODE
    Delay_ms(4000);                          //       
 800322c:	23fa      	movs	r3, #250	; 0xfa
 800322e:	011b      	lsls	r3, r3, #4
 8003230:	0018      	movs	r0, r3
 8003232:	f7fe fb97 	bl	8001964 <Delay_ms>
    init_debug_pin ();                       //     
 8003236:	f7fe fcdd 	bl	8001bf4 <init_debug_pin>
#endif
    Delay_ms(300);
 800323a:	2396      	movs	r3, #150	; 0x96
 800323c:	005b      	lsls	r3, r3, #1
 800323e:	0018      	movs	r0, r3
 8003240:	f7fe fb90 	bl	8001964 <Delay_ms>
    setting_TMC230();                        //   
 8003244:	f7ff fc10 	bl	8002a68 <setting_TMC230>
    init_struct();                           //    ,   
 8003248:	f7ff f8ee 	bl	8002428 <init_struct>
    stepper (9000, 0);                       //         0
 800324c:	4b4c      	ldr	r3, [pc, #304]	; (8003380 <main+0x194>)
 800324e:	2100      	movs	r1, #0
 8003250:	0018      	movs	r0, r3
 8003252:	f7ff f83f 	bl	80022d4 <stepper>
    stepper (9000, 1);                       //         0
 8003256:	4b4a      	ldr	r3, [pc, #296]	; (8003380 <main+0x194>)
 8003258:	2101      	movs	r1, #1
 800325a:	0018      	movs	r0, r3
 800325c:	f7ff f83a 	bl	80022d4 <stepper>
    Delay_ms(4000);
 8003260:	23fa      	movs	r3, #250	; 0xfa
 8003262:	011b      	lsls	r3, r3, #4
 8003264:	0018      	movs	r0, r3
 8003266:	f7fe fb7d 	bl	8001964 <Delay_ms>
    search_steps ();                         //       
 800326a:	f7ff f95b 	bl	8002524 <search_steps>
    Delay_ms(6000);
 800326e:	4b45      	ldr	r3, [pc, #276]	; (8003384 <main+0x198>)
 8003270:	0018      	movs	r0, r3
 8003272:	f7fe fb77 	bl	8001964 <Delay_ms>
    stepper (-5000, 0);                      //         0
 8003276:	4b44      	ldr	r3, [pc, #272]	; (8003388 <main+0x19c>)
 8003278:	2100      	movs	r1, #0
 800327a:	0018      	movs	r0, r3
 800327c:	f7ff f82a 	bl	80022d4 <stepper>
    stepper (-5000, 1);                      //         0
 8003280:	4b41      	ldr	r3, [pc, #260]	; (8003388 <main+0x19c>)
 8003282:	2101      	movs	r1, #1
 8003284:	0018      	movs	r0, r3
 8003286:	f7ff f825 	bl	80022d4 <stepper>
    Delay_ms(4000);                          //   
 800328a:	23fa      	movs	r3, #250	; 0xfa
 800328c:	011b      	lsls	r3, r3, #4
 800328e:	0018      	movs	r0, r3
 8003290:	f7fe fb68 	bl	8001964 <Delay_ms>
    zero_position();                         //  
 8003294:	f7ff f90a 	bl	80024ac <zero_position>
    Delay_ms(4000);                          // ,          0
 8003298:	23fa      	movs	r3, #250	; 0xfa
 800329a:	011b      	lsls	r3, r3, #4
 800329c:	0018      	movs	r0, r3
 800329e:	f7fe fb61 	bl	8001964 <Delay_ms>
    init_flash_data() ;                      //         (, )
 80032a2:	f7fe f92b 	bl	80014fc <init_flash_data>
    init_tim3 ();                            //   3  
 80032a6:	f7fe fb71 	bl	800198c <init_tim3>
	husart1.rx_counter = 0;                  //       0  
 80032aa:	4b38      	ldr	r3, [pc, #224]	; (800338c <main+0x1a0>)
 80032ac:	2200      	movs	r2, #0
 80032ae:	769a      	strb	r2, [r3, #26]
	read_TMC2300 (0, 0x6A);                  //          
 80032b0:	216a      	movs	r1, #106	; 0x6a
 80032b2:	2000      	movs	r0, #0
 80032b4:	f7ff fbb4 	bl	8002a20 <read_TMC2300>
    Delay_ms(4);
 80032b8:	2004      	movs	r0, #4
 80032ba:	f7fe fb53 	bl	8001964 <Delay_ms>
    check_iris (husart1.rx_buffer[9]);       //      
 80032be:	4b33      	ldr	r3, [pc, #204]	; (800338c <main+0x1a0>)
 80032c0:	7cdb      	ldrb	r3, [r3, #19]
 80032c2:	0018      	movs	r0, r3
 80032c4:	f000 f8f0 	bl	80034a8 <check_iris>
    init_wdt ();                             //   
 80032c8:	f7fe fa34 	bl	8001734 <init_wdt>
    init_Uart2 (57600);                      //  
 80032cc:	23e1      	movs	r3, #225	; 0xe1
 80032ce:	021b      	lsls	r3, r3, #8
 80032d0:	0018      	movs	r0, r3
 80032d2:	f7ff fa55 	bl	8002780 <init_Uart2>

   //const	 uint16_t  FLASH_SIZE = (*((uint16_t*)FLASHSIZE_BASE)) << 10;   //   

	for(;;){
		iwdt_reset();                          //   
 80032d6:	f7fe fa51 	bl	800177c <iwdt_reset>
		/*if (point_flags->dma_ok){            //       
			point_flags->dma_ok = FALSE;
			filtr_adc ();
		}*/
		if (!point_flags->zero_in_programm) parsing_data();    //        
 80032da:	4b2d      	ldr	r3, [pc, #180]	; (8003390 <main+0x1a4>)
 80032dc:	681b      	ldr	r3, [r3, #0]
 80032de:	789b      	ldrb	r3, [r3, #2]
 80032e0:	2202      	movs	r2, #2
 80032e2:	4013      	ands	r3, r2
 80032e4:	b2db      	uxtb	r3, r3
 80032e6:	2b00      	cmp	r3, #0
 80032e8:	d101      	bne.n	80032ee <main+0x102>
 80032ea:	f7ff fbeb 	bl	8002ac4 <parsing_data>
		if (point_flags->reset_setting) {                      //          
 80032ee:	4b28      	ldr	r3, [pc, #160]	; (8003390 <main+0x1a4>)
 80032f0:	681b      	ldr	r3, [r3, #0]
 80032f2:	789b      	ldrb	r3, [r3, #2]
 80032f4:	2204      	movs	r2, #4
 80032f6:	4013      	ands	r3, r2
 80032f8:	b2db      	uxtb	r3, r3
 80032fa:	2b00      	cmp	r3, #0
 80032fc:	d007      	beq.n	800330e <main+0x122>
			point_flags->reset_setting = FALSE;
 80032fe:	4b24      	ldr	r3, [pc, #144]	; (8003390 <main+0x1a4>)
 8003300:	681b      	ldr	r3, [r3, #0]
 8003302:	789a      	ldrb	r2, [r3, #2]
 8003304:	2104      	movs	r1, #4
 8003306:	438a      	bics	r2, r1
 8003308:	709a      	strb	r2, [r3, #2]
			init_flash_data ();                                //   
 800330a:	f7fe f8f7 	bl	80014fc <init_flash_data>
		}
		if (point_flags->pid_ok) {                             //    
 800330e:	4b20      	ldr	r3, [pc, #128]	; (8003390 <main+0x1a4>)
 8003310:	681b      	ldr	r3, [r3, #0]
 8003312:	789b      	ldrb	r3, [r3, #2]
 8003314:	2210      	movs	r2, #16
 8003316:	4013      	ands	r3, r2
 8003318:	b2db      	uxtb	r3, r3
 800331a:	2b00      	cmp	r3, #0
 800331c:	d029      	beq.n	8003372 <main+0x186>
			point_flags->pid_ok = FALSE;
 800331e:	4b1c      	ldr	r3, [pc, #112]	; (8003390 <main+0x1a4>)
 8003320:	681b      	ldr	r3, [r3, #0]
 8003322:	789a      	ldrb	r2, [r3, #2]
 8003324:	2110      	movs	r1, #16
 8003326:	438a      	bics	r2, r1
 8003328:	709a      	strb	r2, [r3, #2]
			TIM3->CCR1 = computePID (adc_buf[1], open, kp, ki, kd, 0.02, min, max);
 800332a:	4b1a      	ldr	r3, [pc, #104]	; (8003394 <main+0x1a8>)
 800332c:	885b      	ldrh	r3, [r3, #2]
 800332e:	0018      	movs	r0, r3
 8003330:	f7fd ff5a 	bl	80011e8 <__aeabi_ui2f>
 8003334:	1c06      	adds	r6, r0, #0
 8003336:	4b18      	ldr	r3, [pc, #96]	; (8003398 <main+0x1ac>)
 8003338:	681b      	ldr	r3, [r3, #0]
 800333a:	0018      	movs	r0, r3
 800333c:	f7fd ff06 	bl	800114c <__aeabi_i2f>
 8003340:	4684      	mov	ip, r0
 8003342:	4b16      	ldr	r3, [pc, #88]	; (800339c <main+0x1b0>)
 8003344:	6818      	ldr	r0, [r3, #0]
 8003346:	4b16      	ldr	r3, [pc, #88]	; (80033a0 <main+0x1b4>)
 8003348:	681d      	ldr	r5, [r3, #0]
 800334a:	4b16      	ldr	r3, [pc, #88]	; (80033a4 <main+0x1b8>)
 800334c:	681a      	ldr	r2, [r3, #0]
 800334e:	4b16      	ldr	r3, [pc, #88]	; (80033a8 <main+0x1bc>)
 8003350:	6819      	ldr	r1, [r3, #0]
 8003352:	4b16      	ldr	r3, [pc, #88]	; (80033ac <main+0x1c0>)
 8003354:	681b      	ldr	r3, [r3, #0]
 8003356:	4c16      	ldr	r4, [pc, #88]	; (80033b0 <main+0x1c4>)
 8003358:	9303      	str	r3, [sp, #12]
 800335a:	9102      	str	r1, [sp, #8]
 800335c:	4b15      	ldr	r3, [pc, #84]	; (80033b4 <main+0x1c8>)
 800335e:	9301      	str	r3, [sp, #4]
 8003360:	9200      	str	r2, [sp, #0]
 8003362:	1c2b      	adds	r3, r5, #0
 8003364:	1c02      	adds	r2, r0, #0
 8003366:	4661      	mov	r1, ip
 8003368:	1c30      	adds	r0, r6, #0
 800336a:	f000 f90b 	bl	8003584 <computePID>
 800336e:	0003      	movs	r3, r0
 8003370:	6363      	str	r3, [r4, #52]	; 0x34
		}
		check_mov ();
 8003372:	f000 f821 	bl	80033b8 <check_mov>
		iwdt_reset();                          //   
 8003376:	e7ae      	b.n	80032d6 <main+0xea>
 8003378:	00002710 	.word	0x00002710
 800337c:	48000400 	.word	0x48000400
 8003380:	00002328 	.word	0x00002328
 8003384:	00001770 	.word	0x00001770
 8003388:	ffffec78 	.word	0xffffec78
 800338c:	20000070 	.word	0x20000070
 8003390:	20000000 	.word	0x20000000
 8003394:	2000003c 	.word	0x2000003c
 8003398:	20000010 	.word	0x20000010
 800339c:	20000004 	.word	0x20000004
 80033a0:	20000008 	.word	0x20000008
 80033a4:	2000000c 	.word	0x2000000c
 80033a8:	20000014 	.word	0x20000014
 80033ac:	20000018 	.word	0x20000018
 80033b0:	40000400 	.word	0x40000400
 80033b4:	3ca3d70a 	.word	0x3ca3d70a

080033b8 <check_mov>:
	}
}

static inline void check_mov (void) {           //       
 80033b8:	b580      	push	{r7, lr}
 80033ba:	af00      	add	r7, sp, #0
	if (point_flags->change_pin_conf == 0) {
 80033bc:	4b37      	ldr	r3, [pc, #220]	; (800349c <check_mov+0xe4>)
 80033be:	681b      	ldr	r3, [r3, #0]
 80033c0:	789b      	ldrb	r3, [r3, #2]
 80033c2:	2240      	movs	r2, #64	; 0x40
 80033c4:	4013      	ands	r3, r2
 80033c6:	b2db      	uxtb	r3, r3
 80033c8:	2b00      	cmp	r3, #0
 80033ca:	d131      	bne.n	8003430 <check_mov+0x78>
		if (stepp_1.curent_steps != stepp_1.last_steps && stepp_2.curent_steps != stepp_2.last_steps) {
 80033cc:	4b34      	ldr	r3, [pc, #208]	; (80034a0 <check_mov+0xe8>)
 80033ce:	685a      	ldr	r2, [r3, #4]
 80033d0:	4b33      	ldr	r3, [pc, #204]	; (80034a0 <check_mov+0xe8>)
 80033d2:	681b      	ldr	r3, [r3, #0]
 80033d4:	429a      	cmp	r2, r3
 80033d6:	d018      	beq.n	800340a <check_mov+0x52>
 80033d8:	4b32      	ldr	r3, [pc, #200]	; (80034a4 <check_mov+0xec>)
 80033da:	685a      	ldr	r2, [r3, #4]
 80033dc:	4b31      	ldr	r3, [pc, #196]	; (80034a4 <check_mov+0xec>)
 80033de:	681b      	ldr	r3, [r3, #0]
 80033e0:	429a      	cmp	r2, r3
 80033e2:	d012      	beq.n	800340a <check_mov+0x52>
			MOTOR_MOV_ON;                           //   
 80033e4:	2390      	movs	r3, #144	; 0x90
 80033e6:	05db      	lsls	r3, r3, #23
 80033e8:	699a      	ldr	r2, [r3, #24]
 80033ea:	2390      	movs	r3, #144	; 0x90
 80033ec:	05db      	lsls	r3, r3, #23
 80033ee:	2180      	movs	r1, #128	; 0x80
 80033f0:	0189      	lsls	r1, r1, #6
 80033f2:	430a      	orrs	r2, r1
 80033f4:	619a      	str	r2, [r3, #24]
			MOTOR_STP_OFF;
 80033f6:	2390      	movs	r3, #144	; 0x90
 80033f8:	05db      	lsls	r3, r3, #23
 80033fa:	699a      	ldr	r2, [r3, #24]
 80033fc:	2390      	movs	r3, #144	; 0x90
 80033fe:	05db      	lsls	r3, r3, #23
 8003400:	2180      	movs	r1, #128	; 0x80
 8003402:	05c9      	lsls	r1, r1, #23
 8003404:	430a      	orrs	r2, r1
 8003406:	619a      	str	r2, [r3, #24]
		if (stepp_1.curent_steps != stepp_1.last_steps) MOTOR_MOV_ON;
				else MOTOR_MOV_OFF;
		if (stepp_2.curent_steps != stepp_2.last_steps) MOTOR_STP_ON;
				else MOTOR_STP_OFF;
	}
}
 8003408:	e044      	b.n	8003494 <check_mov+0xdc>
			MOTOR_MOV_OFF;
 800340a:	2390      	movs	r3, #144	; 0x90
 800340c:	05db      	lsls	r3, r3, #23
 800340e:	699a      	ldr	r2, [r3, #24]
 8003410:	2390      	movs	r3, #144	; 0x90
 8003412:	05db      	lsls	r3, r3, #23
 8003414:	2180      	movs	r1, #128	; 0x80
 8003416:	0589      	lsls	r1, r1, #22
 8003418:	430a      	orrs	r2, r1
 800341a:	619a      	str	r2, [r3, #24]
			MOTOR_STP_ON;                           //   
 800341c:	2390      	movs	r3, #144	; 0x90
 800341e:	05db      	lsls	r3, r3, #23
 8003420:	699a      	ldr	r2, [r3, #24]
 8003422:	2390      	movs	r3, #144	; 0x90
 8003424:	05db      	lsls	r3, r3, #23
 8003426:	2180      	movs	r1, #128	; 0x80
 8003428:	01c9      	lsls	r1, r1, #7
 800342a:	430a      	orrs	r2, r1
 800342c:	619a      	str	r2, [r3, #24]
}
 800342e:	e031      	b.n	8003494 <check_mov+0xdc>
		if (stepp_1.curent_steps != stepp_1.last_steps) MOTOR_MOV_ON;
 8003430:	4b1b      	ldr	r3, [pc, #108]	; (80034a0 <check_mov+0xe8>)
 8003432:	685a      	ldr	r2, [r3, #4]
 8003434:	4b1a      	ldr	r3, [pc, #104]	; (80034a0 <check_mov+0xe8>)
 8003436:	681b      	ldr	r3, [r3, #0]
 8003438:	429a      	cmp	r2, r3
 800343a:	d009      	beq.n	8003450 <check_mov+0x98>
 800343c:	2390      	movs	r3, #144	; 0x90
 800343e:	05db      	lsls	r3, r3, #23
 8003440:	699a      	ldr	r2, [r3, #24]
 8003442:	2390      	movs	r3, #144	; 0x90
 8003444:	05db      	lsls	r3, r3, #23
 8003446:	2180      	movs	r1, #128	; 0x80
 8003448:	0189      	lsls	r1, r1, #6
 800344a:	430a      	orrs	r2, r1
 800344c:	619a      	str	r2, [r3, #24]
 800344e:	e008      	b.n	8003462 <check_mov+0xaa>
				else MOTOR_MOV_OFF;
 8003450:	2390      	movs	r3, #144	; 0x90
 8003452:	05db      	lsls	r3, r3, #23
 8003454:	699a      	ldr	r2, [r3, #24]
 8003456:	2390      	movs	r3, #144	; 0x90
 8003458:	05db      	lsls	r3, r3, #23
 800345a:	2180      	movs	r1, #128	; 0x80
 800345c:	0589      	lsls	r1, r1, #22
 800345e:	430a      	orrs	r2, r1
 8003460:	619a      	str	r2, [r3, #24]
		if (stepp_2.curent_steps != stepp_2.last_steps) MOTOR_STP_ON;
 8003462:	4b10      	ldr	r3, [pc, #64]	; (80034a4 <check_mov+0xec>)
 8003464:	685a      	ldr	r2, [r3, #4]
 8003466:	4b0f      	ldr	r3, [pc, #60]	; (80034a4 <check_mov+0xec>)
 8003468:	681b      	ldr	r3, [r3, #0]
 800346a:	429a      	cmp	r2, r3
 800346c:	d009      	beq.n	8003482 <check_mov+0xca>
 800346e:	2390      	movs	r3, #144	; 0x90
 8003470:	05db      	lsls	r3, r3, #23
 8003472:	699a      	ldr	r2, [r3, #24]
 8003474:	2390      	movs	r3, #144	; 0x90
 8003476:	05db      	lsls	r3, r3, #23
 8003478:	2180      	movs	r1, #128	; 0x80
 800347a:	01c9      	lsls	r1, r1, #7
 800347c:	430a      	orrs	r2, r1
 800347e:	619a      	str	r2, [r3, #24]
}
 8003480:	e008      	b.n	8003494 <check_mov+0xdc>
				else MOTOR_STP_OFF;
 8003482:	2390      	movs	r3, #144	; 0x90
 8003484:	05db      	lsls	r3, r3, #23
 8003486:	699a      	ldr	r2, [r3, #24]
 8003488:	2390      	movs	r3, #144	; 0x90
 800348a:	05db      	lsls	r3, r3, #23
 800348c:	2180      	movs	r1, #128	; 0x80
 800348e:	05c9      	lsls	r1, r1, #23
 8003490:	430a      	orrs	r2, r1
 8003492:	619a      	str	r2, [r3, #24]
}
 8003494:	46c0      	nop			; (mov r8, r8)
 8003496:	46bd      	mov	sp, r7
 8003498:	bd80      	pop	{r7, pc}
 800349a:	46c0      	nop			; (mov r8, r8)
 800349c:	20000000 	.word	0x20000000
 80034a0:	2000004c 	.word	0x2000004c
 80034a4:	2000005c 	.word	0x2000005c

080034a8 <check_iris>:

static inline void check_iris (uint8_t poz) {
 80034a8:	b580      	push	{r7, lr}
 80034aa:	b082      	sub	sp, #8
 80034ac:	af00      	add	r7, sp, #0
 80034ae:	0002      	movs	r2, r0
 80034b0:	1dfb      	adds	r3, r7, #7
 80034b2:	701a      	strb	r2, [r3, #0]
	switch (poz) {
 80034b4:	1dfb      	adds	r3, r7, #7
 80034b6:	781b      	ldrb	r3, [r3, #0]
 80034b8:	2b03      	cmp	r3, #3
 80034ba:	d03e      	beq.n	800353a <check_iris+0x92>
 80034bc:	dc3e      	bgt.n	800353c <check_iris+0x94>
 80034be:	2b02      	cmp	r3, #2
 80034c0:	d029      	beq.n	8003516 <check_iris+0x6e>
 80034c2:	dc3b      	bgt.n	800353c <check_iris+0x94>
 80034c4:	2b00      	cmp	r3, #0
 80034c6:	d002      	beq.n	80034ce <check_iris+0x26>
 80034c8:	2b01      	cmp	r3, #1
 80034ca:	d012      	beq.n	80034f2 <check_iris+0x4a>
    	point_flags->delay = 2;
		break;
	case 3:
		break;
	}
}
 80034cc:	e036      	b.n	800353c <check_iris+0x94>
    	STEP3_ON;                            //  
 80034ce:	2390      	movs	r3, #144	; 0x90
 80034d0:	05db      	lsls	r3, r3, #23
 80034d2:	699a      	ldr	r2, [r3, #24]
 80034d4:	2390      	movs	r3, #144	; 0x90
 80034d6:	05db      	lsls	r3, r3, #23
 80034d8:	2180      	movs	r1, #128	; 0x80
 80034da:	430a      	orrs	r2, r1
 80034dc:	619a      	str	r2, [r3, #24]
    	point_flags->delay = 6;
 80034de:	4b19      	ldr	r3, [pc, #100]	; (8003544 <check_iris+0x9c>)
 80034e0:	681b      	ldr	r3, [r3, #0]
 80034e2:	681a      	ldr	r2, [r3, #0]
 80034e4:	4918      	ldr	r1, [pc, #96]	; (8003548 <check_iris+0xa0>)
 80034e6:	400a      	ands	r2, r1
 80034e8:	21c0      	movs	r1, #192	; 0xc0
 80034ea:	0209      	lsls	r1, r1, #8
 80034ec:	430a      	orrs	r2, r1
 80034ee:	601a      	str	r2, [r3, #0]
		break;
 80034f0:	e024      	b.n	800353c <check_iris+0x94>
    	STEP3_ON;                            //  
 80034f2:	2390      	movs	r3, #144	; 0x90
 80034f4:	05db      	lsls	r3, r3, #23
 80034f6:	699a      	ldr	r2, [r3, #24]
 80034f8:	2390      	movs	r3, #144	; 0x90
 80034fa:	05db      	lsls	r3, r3, #23
 80034fc:	2180      	movs	r1, #128	; 0x80
 80034fe:	430a      	orrs	r2, r1
 8003500:	619a      	str	r2, [r3, #24]
    	point_flags->delay = 4;
 8003502:	4b10      	ldr	r3, [pc, #64]	; (8003544 <check_iris+0x9c>)
 8003504:	681b      	ldr	r3, [r3, #0]
 8003506:	681a      	ldr	r2, [r3, #0]
 8003508:	490f      	ldr	r1, [pc, #60]	; (8003548 <check_iris+0xa0>)
 800350a:	400a      	ands	r2, r1
 800350c:	2180      	movs	r1, #128	; 0x80
 800350e:	0209      	lsls	r1, r1, #8
 8003510:	430a      	orrs	r2, r1
 8003512:	601a      	str	r2, [r3, #0]
		break;
 8003514:	e012      	b.n	800353c <check_iris+0x94>
    	STEP3_ON;                            //  
 8003516:	2390      	movs	r3, #144	; 0x90
 8003518:	05db      	lsls	r3, r3, #23
 800351a:	699a      	ldr	r2, [r3, #24]
 800351c:	2390      	movs	r3, #144	; 0x90
 800351e:	05db      	lsls	r3, r3, #23
 8003520:	2180      	movs	r1, #128	; 0x80
 8003522:	430a      	orrs	r2, r1
 8003524:	619a      	str	r2, [r3, #24]
    	point_flags->delay = 2;
 8003526:	4b07      	ldr	r3, [pc, #28]	; (8003544 <check_iris+0x9c>)
 8003528:	681b      	ldr	r3, [r3, #0]
 800352a:	681a      	ldr	r2, [r3, #0]
 800352c:	4906      	ldr	r1, [pc, #24]	; (8003548 <check_iris+0xa0>)
 800352e:	400a      	ands	r2, r1
 8003530:	2180      	movs	r1, #128	; 0x80
 8003532:	01c9      	lsls	r1, r1, #7
 8003534:	430a      	orrs	r2, r1
 8003536:	601a      	str	r2, [r3, #0]
		break;
 8003538:	e000      	b.n	800353c <check_iris+0x94>
		break;
 800353a:	46c0      	nop			; (mov r8, r8)
}
 800353c:	46c0      	nop			; (mov r8, r8)
 800353e:	46bd      	mov	sp, r7
 8003540:	b002      	add	sp, #8
 8003542:	bd80      	pop	{r7, pc}
 8003544:	20000000 	.word	0x20000000
 8003548:	fffe1fff 	.word	0xfffe1fff

0800354c <constrain>:

float constrain(float x, float a, float b) {
 800354c:	b580      	push	{r7, lr}
 800354e:	b084      	sub	sp, #16
 8003550:	af00      	add	r7, sp, #0
 8003552:	60f8      	str	r0, [r7, #12]
 8003554:	60b9      	str	r1, [r7, #8]
 8003556:	607a      	str	r2, [r7, #4]
    if(x < a) {
 8003558:	68b9      	ldr	r1, [r7, #8]
 800355a:	68f8      	ldr	r0, [r7, #12]
 800355c:	f7fc ff5c 	bl	8000418 <__aeabi_fcmplt>
 8003560:	1e03      	subs	r3, r0, #0
 8003562:	d001      	beq.n	8003568 <constrain+0x1c>
        return a;
 8003564:	68bb      	ldr	r3, [r7, #8]
 8003566:	e008      	b.n	800357a <constrain+0x2e>
    }
    else if(b < x) {
 8003568:	68f9      	ldr	r1, [r7, #12]
 800356a:	6878      	ldr	r0, [r7, #4]
 800356c:	f7fc ff54 	bl	8000418 <__aeabi_fcmplt>
 8003570:	1e03      	subs	r3, r0, #0
 8003572:	d001      	beq.n	8003578 <constrain+0x2c>
        return b;
 8003574:	687b      	ldr	r3, [r7, #4]
 8003576:	e000      	b.n	800357a <constrain+0x2e>
    }
    else
        return x;
 8003578:	68fb      	ldr	r3, [r7, #12]
}
 800357a:	1c18      	adds	r0, r3, #0
 800357c:	46bd      	mov	sp, r7
 800357e:	b004      	add	sp, #16
 8003580:	bd80      	pop	{r7, pc}
	...

08003584 <computePID>:

// (, , , , ,   , ., . )
uint32_t computePID(float input, float setpoint, float kp, float ki, float kd, float dt, int minOut, int maxOut) {
 8003584:	b5b0      	push	{r4, r5, r7, lr}
 8003586:	b086      	sub	sp, #24
 8003588:	af00      	add	r7, sp, #0
 800358a:	60f8      	str	r0, [r7, #12]
 800358c:	60b9      	str	r1, [r7, #8]
 800358e:	607a      	str	r2, [r7, #4]
 8003590:	603b      	str	r3, [r7, #0]
  float err = (setpoint- ks) - input  ;
 8003592:	4b43      	ldr	r3, [pc, #268]	; (80036a0 <computePID+0x11c>)
 8003594:	681b      	ldr	r3, [r3, #0]
 8003596:	0018      	movs	r0, r3
 8003598:	f7fd fdd8 	bl	800114c <__aeabi_i2f>
 800359c:	1c03      	adds	r3, r0, #0
 800359e:	1c19      	adds	r1, r3, #0
 80035a0:	68b8      	ldr	r0, [r7, #8]
 80035a2:	f7fd fc05 	bl	8000db0 <__aeabi_fsub>
 80035a6:	1c03      	adds	r3, r0, #0
 80035a8:	68f9      	ldr	r1, [r7, #12]
 80035aa:	1c18      	adds	r0, r3, #0
 80035ac:	f7fd fc00 	bl	8000db0 <__aeabi_fsub>
 80035b0:	1c03      	adds	r3, r0, #0
 80035b2:	617b      	str	r3, [r7, #20]
  if (ks > 0) ks -= 15;                                           //   
 80035b4:	4b3a      	ldr	r3, [pc, #232]	; (80036a0 <computePID+0x11c>)
 80035b6:	681b      	ldr	r3, [r3, #0]
 80035b8:	2b00      	cmp	r3, #0
 80035ba:	dd05      	ble.n	80035c8 <computePID+0x44>
 80035bc:	4b38      	ldr	r3, [pc, #224]	; (80036a0 <computePID+0x11c>)
 80035be:	681b      	ldr	r3, [r3, #0]
 80035c0:	3b0f      	subs	r3, #15
 80035c2:	001a      	movs	r2, r3
 80035c4:	4b36      	ldr	r3, [pc, #216]	; (80036a0 <computePID+0x11c>)
 80035c6:	601a      	str	r2, [r3, #0]
  if (ks < 0) ks += 15;
 80035c8:	4b35      	ldr	r3, [pc, #212]	; (80036a0 <computePID+0x11c>)
 80035ca:	681b      	ldr	r3, [r3, #0]
 80035cc:	2b00      	cmp	r3, #0
 80035ce:	da05      	bge.n	80035dc <computePID+0x58>
 80035d0:	4b33      	ldr	r3, [pc, #204]	; (80036a0 <computePID+0x11c>)
 80035d2:	681b      	ldr	r3, [r3, #0]
 80035d4:	330f      	adds	r3, #15
 80035d6:	001a      	movs	r2, r3
 80035d8:	4b31      	ldr	r3, [pc, #196]	; (80036a0 <computePID+0x11c>)
 80035da:	601a      	str	r2, [r3, #0]
  static float integral = 0, prevErr = 0;
  integral = constrain(integral + err * dt * ki, minOut, maxOut);
 80035dc:	6af9      	ldr	r1, [r7, #44]	; 0x2c
 80035de:	6978      	ldr	r0, [r7, #20]
 80035e0:	f7fd fac0 	bl	8000b64 <__aeabi_fmul>
 80035e4:	1c03      	adds	r3, r0, #0
 80035e6:	6839      	ldr	r1, [r7, #0]
 80035e8:	1c18      	adds	r0, r3, #0
 80035ea:	f7fd fabb 	bl	8000b64 <__aeabi_fmul>
 80035ee:	1c03      	adds	r3, r0, #0
 80035f0:	1c1a      	adds	r2, r3, #0
 80035f2:	4b2c      	ldr	r3, [pc, #176]	; (80036a4 <computePID+0x120>)
 80035f4:	681b      	ldr	r3, [r3, #0]
 80035f6:	1c19      	adds	r1, r3, #0
 80035f8:	1c10      	adds	r0, r2, #0
 80035fa:	f7fc ff4d 	bl	8000498 <__aeabi_fadd>
 80035fe:	1c03      	adds	r3, r0, #0
 8003600:	1c1d      	adds	r5, r3, #0
 8003602:	6b38      	ldr	r0, [r7, #48]	; 0x30
 8003604:	f7fd fda2 	bl	800114c <__aeabi_i2f>
 8003608:	1c04      	adds	r4, r0, #0
 800360a:	6b78      	ldr	r0, [r7, #52]	; 0x34
 800360c:	f7fd fd9e 	bl	800114c <__aeabi_i2f>
 8003610:	1c03      	adds	r3, r0, #0
 8003612:	1c1a      	adds	r2, r3, #0
 8003614:	1c21      	adds	r1, r4, #0
 8003616:	1c28      	adds	r0, r5, #0
 8003618:	f7ff ff98 	bl	800354c <constrain>
 800361c:	1c02      	adds	r2, r0, #0
 800361e:	4b21      	ldr	r3, [pc, #132]	; (80036a4 <computePID+0x120>)
 8003620:	601a      	str	r2, [r3, #0]
  float D = (err - prevErr) / dt;
 8003622:	4b21      	ldr	r3, [pc, #132]	; (80036a8 <computePID+0x124>)
 8003624:	681b      	ldr	r3, [r3, #0]
 8003626:	1c19      	adds	r1, r3, #0
 8003628:	6978      	ldr	r0, [r7, #20]
 800362a:	f7fd fbc1 	bl	8000db0 <__aeabi_fsub>
 800362e:	1c03      	adds	r3, r0, #0
 8003630:	6af9      	ldr	r1, [r7, #44]	; 0x2c
 8003632:	1c18      	adds	r0, r3, #0
 8003634:	f7fd f8ce 	bl	80007d4 <__aeabi_fdiv>
 8003638:	1c03      	adds	r3, r0, #0
 800363a:	613b      	str	r3, [r7, #16]
  prevErr = err;
 800363c:	4b1a      	ldr	r3, [pc, #104]	; (80036a8 <computePID+0x124>)
 800363e:	697a      	ldr	r2, [r7, #20]
 8003640:	601a      	str	r2, [r3, #0]
  return constrain(err * kp + integral + D * kd, minOut, maxOut);
 8003642:	6879      	ldr	r1, [r7, #4]
 8003644:	6978      	ldr	r0, [r7, #20]
 8003646:	f7fd fa8d 	bl	8000b64 <__aeabi_fmul>
 800364a:	1c03      	adds	r3, r0, #0
 800364c:	1c1a      	adds	r2, r3, #0
 800364e:	4b15      	ldr	r3, [pc, #84]	; (80036a4 <computePID+0x120>)
 8003650:	681b      	ldr	r3, [r3, #0]
 8003652:	1c19      	adds	r1, r3, #0
 8003654:	1c10      	adds	r0, r2, #0
 8003656:	f7fc ff1f 	bl	8000498 <__aeabi_fadd>
 800365a:	1c03      	adds	r3, r0, #0
 800365c:	1c1c      	adds	r4, r3, #0
 800365e:	6ab9      	ldr	r1, [r7, #40]	; 0x28
 8003660:	6938      	ldr	r0, [r7, #16]
 8003662:	f7fd fa7f 	bl	8000b64 <__aeabi_fmul>
 8003666:	1c03      	adds	r3, r0, #0
 8003668:	1c19      	adds	r1, r3, #0
 800366a:	1c20      	adds	r0, r4, #0
 800366c:	f7fc ff14 	bl	8000498 <__aeabi_fadd>
 8003670:	1c03      	adds	r3, r0, #0
 8003672:	1c1d      	adds	r5, r3, #0
 8003674:	6b38      	ldr	r0, [r7, #48]	; 0x30
 8003676:	f7fd fd69 	bl	800114c <__aeabi_i2f>
 800367a:	1c04      	adds	r4, r0, #0
 800367c:	6b78      	ldr	r0, [r7, #52]	; 0x34
 800367e:	f7fd fd65 	bl	800114c <__aeabi_i2f>
 8003682:	1c03      	adds	r3, r0, #0
 8003684:	1c1a      	adds	r2, r3, #0
 8003686:	1c21      	adds	r1, r4, #0
 8003688:	1c28      	adds	r0, r5, #0
 800368a:	f7ff ff5f 	bl	800354c <constrain>
 800368e:	1c03      	adds	r3, r0, #0
 8003690:	1c18      	adds	r0, r3, #0
 8003692:	f7fc fee9 	bl	8000468 <__aeabi_f2uiz>
 8003696:	0003      	movs	r3, r0
}
 8003698:	0018      	movs	r0, r3
 800369a:	46bd      	mov	sp, r7
 800369c:	b006      	add	sp, #24
 800369e:	bdb0      	pop	{r4, r5, r7, pc}
 80036a0:	200000e0 	.word	0x200000e0
 80036a4:	200000e4 	.word	0x200000e4
 80036a8:	200000e8 	.word	0x200000e8

080036ac <set_pid>:

uint32_t set_pid (uint32_t new_pid) {
 80036ac:	b590      	push	{r4, r7, lr}
 80036ae:	b087      	sub	sp, #28
 80036b0:	af02      	add	r7, sp, #8
 80036b2:	6078      	str	r0, [r7, #4]
	if (new_pid < 0 || new_pid > 100) return 0;
 80036b4:	687b      	ldr	r3, [r7, #4]
 80036b6:	2b64      	cmp	r3, #100	; 0x64
 80036b8:	d901      	bls.n	80036be <set_pid+0x12>
 80036ba:	2300      	movs	r3, #0
 80036bc:	e045      	b.n	800374a <set_pid+0x9e>
	pid_param = new_pid;
 80036be:	687b      	ldr	r3, [r7, #4]
 80036c0:	b2da      	uxtb	r2, r3
 80036c2:	4b24      	ldr	r3, [pc, #144]	; (8003754 <set_pid+0xa8>)
 80036c4:	701a      	strb	r2, [r3, #0]
	uint16_t mirror = 0;
 80036c6:	240e      	movs	r4, #14
 80036c8:	193b      	adds	r3, r7, r4
 80036ca:	2200      	movs	r2, #0
 80036cc:	801a      	strh	r2, [r3, #0]
	mirror = map (new_pid, 0, 100, 600, 3000);
 80036ce:	6878      	ldr	r0, [r7, #4]
 80036d0:	2396      	movs	r3, #150	; 0x96
 80036d2:	009b      	lsls	r3, r3, #2
 80036d4:	4a20      	ldr	r2, [pc, #128]	; (8003758 <set_pid+0xac>)
 80036d6:	9200      	str	r2, [sp, #0]
 80036d8:	2264      	movs	r2, #100	; 0x64
 80036da:	2100      	movs	r1, #0
 80036dc:	f7fd fe76 	bl	80013cc <map>
 80036e0:	0002      	movs	r2, r0
 80036e2:	193b      	adds	r3, r7, r4
 80036e4:	801a      	strh	r2, [r3, #0]
	if (mirror > open){
 80036e6:	193b      	adds	r3, r7, r4
 80036e8:	881a      	ldrh	r2, [r3, #0]
 80036ea:	4b1c      	ldr	r3, [pc, #112]	; (800375c <set_pid+0xb0>)
 80036ec:	681b      	ldr	r3, [r3, #0]
 80036ee:	429a      	cmp	r2, r3
 80036f0:	dd11      	ble.n	8003716 <set_pid+0x6a>
		if (mirror > open ){ ks = mirror - open; } //ks = ks /2;
 80036f2:	193b      	adds	r3, r7, r4
 80036f4:	881a      	ldrh	r2, [r3, #0]
 80036f6:	4b19      	ldr	r3, [pc, #100]	; (800375c <set_pid+0xb0>)
 80036f8:	681b      	ldr	r3, [r3, #0]
 80036fa:	429a      	cmp	r2, r3
 80036fc:	dd06      	ble.n	800370c <set_pid+0x60>
 80036fe:	193b      	adds	r3, r7, r4
 8003700:	881a      	ldrh	r2, [r3, #0]
 8003702:	4b16      	ldr	r3, [pc, #88]	; (800375c <set_pid+0xb0>)
 8003704:	681b      	ldr	r3, [r3, #0]
 8003706:	1ad2      	subs	r2, r2, r3
 8003708:	4b15      	ldr	r3, [pc, #84]	; (8003760 <set_pid+0xb4>)
 800370a:	601a      	str	r2, [r3, #0]
		open = mirror;
 800370c:	230e      	movs	r3, #14
 800370e:	18fb      	adds	r3, r7, r3
 8003710:	881a      	ldrh	r2, [r3, #0]
 8003712:	4b12      	ldr	r3, [pc, #72]	; (800375c <set_pid+0xb0>)
 8003714:	601a      	str	r2, [r3, #0]
	}

	if (mirror < open) {
 8003716:	210e      	movs	r1, #14
 8003718:	187b      	adds	r3, r7, r1
 800371a:	881a      	ldrh	r2, [r3, #0]
 800371c:	4b0f      	ldr	r3, [pc, #60]	; (800375c <set_pid+0xb0>)
 800371e:	681b      	ldr	r3, [r3, #0]
 8003720:	429a      	cmp	r2, r3
 8003722:	da11      	bge.n	8003748 <set_pid+0x9c>
		if (mirror < open ){ ks = mirror - open; } // ks = ks /2;
 8003724:	187b      	adds	r3, r7, r1
 8003726:	881a      	ldrh	r2, [r3, #0]
 8003728:	4b0c      	ldr	r3, [pc, #48]	; (800375c <set_pid+0xb0>)
 800372a:	681b      	ldr	r3, [r3, #0]
 800372c:	429a      	cmp	r2, r3
 800372e:	da06      	bge.n	800373e <set_pid+0x92>
 8003730:	187b      	adds	r3, r7, r1
 8003732:	881a      	ldrh	r2, [r3, #0]
 8003734:	4b09      	ldr	r3, [pc, #36]	; (800375c <set_pid+0xb0>)
 8003736:	681b      	ldr	r3, [r3, #0]
 8003738:	1ad2      	subs	r2, r2, r3
 800373a:	4b09      	ldr	r3, [pc, #36]	; (8003760 <set_pid+0xb4>)
 800373c:	601a      	str	r2, [r3, #0]
		open = mirror;
 800373e:	230e      	movs	r3, #14
 8003740:	18fb      	adds	r3, r7, r3
 8003742:	881a      	ldrh	r2, [r3, #0]
 8003744:	4b05      	ldr	r3, [pc, #20]	; (800375c <set_pid+0xb0>)
 8003746:	601a      	str	r2, [r3, #0]
	}
	return new_pid;
 8003748:	687b      	ldr	r3, [r7, #4]
}
 800374a:	0018      	movs	r0, r3
 800374c:	46bd      	mov	sp, r7
 800374e:	b005      	add	sp, #20
 8003750:	bd90      	pop	{r4, r7, pc}
 8003752:	46c0      	nop			; (mov r8, r8)
 8003754:	2000001c 	.word	0x2000001c
 8003758:	00000bb8 	.word	0x00000bb8
 800375c:	20000010 	.word	0x20000010
 8003760:	200000e0 	.word	0x200000e0

08003764 <setting_pin_rasbery>:

uint32_t setting_pin_rasbery (uint32_t sign) {
 8003764:	b580      	push	{r7, lr}
 8003766:	b082      	sub	sp, #8
 8003768:	af00      	add	r7, sp, #0
 800376a:	6078      	str	r0, [r7, #4]
	if (sign == 0) {point_flags->change_pin_conf = 0; return 1;}
 800376c:	687b      	ldr	r3, [r7, #4]
 800376e:	2b00      	cmp	r3, #0
 8003770:	d107      	bne.n	8003782 <setting_pin_rasbery+0x1e>
 8003772:	4b0c      	ldr	r3, [pc, #48]	; (80037a4 <setting_pin_rasbery+0x40>)
 8003774:	681b      	ldr	r3, [r3, #0]
 8003776:	789a      	ldrb	r2, [r3, #2]
 8003778:	2140      	movs	r1, #64	; 0x40
 800377a:	438a      	bics	r2, r1
 800377c:	709a      	strb	r2, [r3, #2]
 800377e:	2301      	movs	r3, #1
 8003780:	e00b      	b.n	800379a <setting_pin_rasbery+0x36>
	if (sign == 1) {point_flags->change_pin_conf = 1; return 1;}
 8003782:	687b      	ldr	r3, [r7, #4]
 8003784:	2b01      	cmp	r3, #1
 8003786:	d107      	bne.n	8003798 <setting_pin_rasbery+0x34>
 8003788:	4b06      	ldr	r3, [pc, #24]	; (80037a4 <setting_pin_rasbery+0x40>)
 800378a:	681b      	ldr	r3, [r3, #0]
 800378c:	789a      	ldrb	r2, [r3, #2]
 800378e:	2140      	movs	r1, #64	; 0x40
 8003790:	430a      	orrs	r2, r1
 8003792:	709a      	strb	r2, [r3, #2]
 8003794:	2301      	movs	r3, #1
 8003796:	e000      	b.n	800379a <setting_pin_rasbery+0x36>
	return 0;
 8003798:	2300      	movs	r3, #0
}
 800379a:	0018      	movs	r0, r3
 800379c:	46bd      	mov	sp, r7
 800379e:	b002      	add	sp, #8
 80037a0:	bd80      	pop	{r7, pc}
 80037a2:	46c0      	nop			; (mov r8, r8)
 80037a4:	20000000 	.word	0x20000000

080037a8 <SystemInit>:
  * @brief  Setup the microcontroller system
  * @param  None
  * @retval None
  */
void SystemInit(void)
{
 80037a8:	b580      	push	{r7, lr}
 80037aa:	af00      	add	r7, sp, #0
                         before branch to main program. This call is made inside
                         the "startup_stm32f0xx.s" file.
                         User can setups the default system clock (System clock source, PLL Multiplier
                         and Divider factors, AHB/APBx prescalers and Flash settings).
   */
}
 80037ac:	46c0      	nop			; (mov r8, r8)
 80037ae:	46bd      	mov	sp, r7
 80037b0:	bd80      	pop	{r7, pc}
	...

080037b4 <Reset_Handler>:

  .section .text.Reset_Handler
  .weak Reset_Handler
  .type Reset_Handler, %function
Reset_Handler:
  ldr   r0, =_estack
 80037b4:	4813      	ldr	r0, [pc, #76]	; (8003804 <LoopForever+0x2>)
  mov   sp, r0          /* set stack pointer */
 80037b6:	4685      	mov	sp, r0

/*Check if boot space corresponds to test memory*/
 
    LDR R0,=0x00000004
 80037b8:	4813      	ldr	r0, [pc, #76]	; (8003808 <LoopForever+0x6>)
    LDR R1, [R0]
 80037ba:	6801      	ldr	r1, [r0, #0]
    LSRS R1, R1, #24
 80037bc:	0e09      	lsrs	r1, r1, #24
    LDR R2,=0x1F
 80037be:	4a13      	ldr	r2, [pc, #76]	; (800380c <LoopForever+0xa>)
    CMP R1, R2
 80037c0:	4291      	cmp	r1, r2
    BNE ApplicationStart
 80037c2:	d105      	bne.n	80037d0 <ApplicationStart>

 /*SYSCFG clock enable*/

    LDR R0,=0x40021018
 80037c4:	4812      	ldr	r0, [pc, #72]	; (8003810 <LoopForever+0xe>)
    LDR R1,=0x00000001
 80037c6:	4913      	ldr	r1, [pc, #76]	; (8003814 <LoopForever+0x12>)
    STR R1, [R0]
 80037c8:	6001      	str	r1, [r0, #0]

/*Set CFGR1 register with flash memory remap at address 0*/
    LDR R0,=0x40010000
 80037ca:	4813      	ldr	r0, [pc, #76]	; (8003818 <LoopForever+0x16>)
    LDR R1,=0x00000000
 80037cc:	4913      	ldr	r1, [pc, #76]	; (800381c <LoopForever+0x1a>)
    STR R1, [R0]
 80037ce:	6001      	str	r1, [r0, #0]

080037d0 <ApplicationStart>:

ApplicationStart:
/* Copy the data segment initializers from flash to SRAM */
  ldr r0, =_sdata
 80037d0:	4813      	ldr	r0, [pc, #76]	; (8003820 <LoopForever+0x1e>)
  ldr r1, =_edata
 80037d2:	4914      	ldr	r1, [pc, #80]	; (8003824 <LoopForever+0x22>)
  ldr r2, =_sidata
 80037d4:	4a14      	ldr	r2, [pc, #80]	; (8003828 <LoopForever+0x26>)
  movs r3, #0
 80037d6:	2300      	movs	r3, #0
  b LoopCopyDataInit
 80037d8:	e002      	b.n	80037e0 <LoopCopyDataInit>

080037da <CopyDataInit>:

CopyDataInit:
  ldr r4, [r2, r3]
 80037da:	58d4      	ldr	r4, [r2, r3]
  str r4, [r0, r3]
 80037dc:	50c4      	str	r4, [r0, r3]
  adds r3, r3, #4
 80037de:	3304      	adds	r3, #4

080037e0 <LoopCopyDataInit>:

LoopCopyDataInit:
  adds r4, r0, r3
 80037e0:	18c4      	adds	r4, r0, r3
  cmp r4, r1
 80037e2:	428c      	cmp	r4, r1
  bcc CopyDataInit
 80037e4:	d3f9      	bcc.n	80037da <CopyDataInit>
  
/* Zero fill the bss segment. */
  ldr r2, =_sbss
 80037e6:	4a11      	ldr	r2, [pc, #68]	; (800382c <LoopForever+0x2a>)
  ldr r4, =_ebss
 80037e8:	4c11      	ldr	r4, [pc, #68]	; (8003830 <LoopForever+0x2e>)
  movs r3, #0
 80037ea:	2300      	movs	r3, #0
  b LoopFillZerobss
 80037ec:	e001      	b.n	80037f2 <LoopFillZerobss>

080037ee <FillZerobss>:

FillZerobss:
  str  r3, [r2]
 80037ee:	6013      	str	r3, [r2, #0]
  adds r2, r2, #4
 80037f0:	3204      	adds	r2, #4

080037f2 <LoopFillZerobss>:

LoopFillZerobss:
  cmp r2, r4
 80037f2:	42a2      	cmp	r2, r4
  bcc FillZerobss
 80037f4:	d3fb      	bcc.n	80037ee <FillZerobss>

/* Call the clock system intitialization function.*/
  bl  SystemInit
 80037f6:	f7ff ffd7 	bl	80037a8 <SystemInit>
/* Call static constructors */
  bl __libc_init_array
 80037fa:	f000 f81d 	bl	8003838 <__libc_init_array>
/* Call the application's entry point.*/
  bl main
 80037fe:	f7ff fcf5 	bl	80031ec <main>

08003802 <LoopForever>:

LoopForever:
    b LoopForever
 8003802:	e7fe      	b.n	8003802 <LoopForever>
  ldr   r0, =_estack
 8003804:	20001800 	.word	0x20001800
    LDR R0,=0x00000004
 8003808:	00000004 	.word	0x00000004
    LDR R2,=0x1F
 800380c:	0000001f 	.word	0x0000001f
    LDR R0,=0x40021018
 8003810:	40021018 	.word	0x40021018
    LDR R1,=0x00000001
 8003814:	00000001 	.word	0x00000001
    LDR R0,=0x40010000
 8003818:	40010000 	.word	0x40010000
    LDR R1,=0x00000000
 800381c:	00000000 	.word	0x00000000
  ldr r0, =_sdata
 8003820:	20000000 	.word	0x20000000
  ldr r1, =_edata
 8003824:	20000020 	.word	0x20000020
  ldr r2, =_sidata
 8003828:	08003994 	.word	0x08003994
  ldr r2, =_sbss
 800382c:	20000020 	.word	0x20000020
  ldr r4, =_ebss
 8003830:	200000ec 	.word	0x200000ec

08003834 <ADC1_IRQHandler>:
 * @retval : None
*/
    .section .text.Default_Handler,"ax",%progbits
Default_Handler:
Infinite_Loop:
  b Infinite_Loop
 8003834:	e7fe      	b.n	8003834 <ADC1_IRQHandler>
	...

08003838 <__libc_init_array>:
 8003838:	b570      	push	{r4, r5, r6, lr}
 800383a:	2600      	movs	r6, #0
 800383c:	4d0c      	ldr	r5, [pc, #48]	; (8003870 <__libc_init_array+0x38>)
 800383e:	4c0d      	ldr	r4, [pc, #52]	; (8003874 <__libc_init_array+0x3c>)
 8003840:	1b64      	subs	r4, r4, r5
 8003842:	10a4      	asrs	r4, r4, #2
 8003844:	42a6      	cmp	r6, r4
 8003846:	d109      	bne.n	800385c <__libc_init_array+0x24>
 8003848:	2600      	movs	r6, #0
 800384a:	f000 f819 	bl	8003880 <_init>
 800384e:	4d0a      	ldr	r5, [pc, #40]	; (8003878 <__libc_init_array+0x40>)
 8003850:	4c0a      	ldr	r4, [pc, #40]	; (800387c <__libc_init_array+0x44>)
 8003852:	1b64      	subs	r4, r4, r5
 8003854:	10a4      	asrs	r4, r4, #2
 8003856:	42a6      	cmp	r6, r4
 8003858:	d105      	bne.n	8003866 <__libc_init_array+0x2e>
 800385a:	bd70      	pop	{r4, r5, r6, pc}
 800385c:	00b3      	lsls	r3, r6, #2
 800385e:	58eb      	ldr	r3, [r5, r3]
 8003860:	4798      	blx	r3
 8003862:	3601      	adds	r6, #1
 8003864:	e7ee      	b.n	8003844 <__libc_init_array+0xc>
 8003866:	00b3      	lsls	r3, r6, #2
 8003868:	58eb      	ldr	r3, [r5, r3]
 800386a:	4798      	blx	r3
 800386c:	3601      	adds	r6, #1
 800386e:	e7f2      	b.n	8003856 <__libc_init_array+0x1e>
 8003870:	0800398c 	.word	0x0800398c
 8003874:	0800398c 	.word	0x0800398c
 8003878:	0800398c 	.word	0x0800398c
 800387c:	08003990 	.word	0x08003990

08003880 <_init>:
 8003880:	b5f8      	push	{r3, r4, r5, r6, r7, lr}
 8003882:	46c0      	nop			; (mov r8, r8)
 8003884:	bcf8      	pop	{r3, r4, r5, r6, r7}
 8003886:	bc08      	pop	{r3}
 8003888:	469e      	mov	lr, r3
 800388a:	4770      	bx	lr

0800388c <_fini>:
 800388c:	b5f8      	push	{r3, r4, r5, r6, r7, lr}
 800388e:	46c0      	nop			; (mov r8, r8)
 8003890:	bcf8      	pop	{r3, r4, r5, r6, r7}
 8003892:	bc08      	pop	{r3}
 8003894:	469e      	mov	lr, r3
 8003896:	4770      	bx	lr
